
ctarget:     file format elf64-x86-64


Disassembly of section .init:

0000000000400c48 <_init>:
  400c48:	48 83 ec 08          	sub    $0x8,%rsp
  400c4c:	48 8b 05 a5 43 20 00 	mov    0x2043a5(%rip),%rax        # 604ff8 <__gmon_start__>
  400c53:	48 85 c0             	test   %rax,%rax
  400c56:	74 02                	je     400c5a <_init+0x12>
  400c58:	ff d0                	callq  *%rax
  400c5a:	48 83 c4 08          	add    $0x8,%rsp
  400c5e:	c3                   	retq   

Disassembly of section .plt:

0000000000400c60 <.plt>:
  400c60:	ff 35 a2 43 20 00    	pushq  0x2043a2(%rip)        # 605008 <_GLOBAL_OFFSET_TABLE_+0x8>
  400c66:	ff 25 a4 43 20 00    	jmpq   *0x2043a4(%rip)        # 605010 <_GLOBAL_OFFSET_TABLE_+0x10>
  400c6c:	0f 1f 40 00          	nopl   0x0(%rax)

0000000000400c70 <strcasecmp@plt>:
  400c70:	ff 25 a2 43 20 00    	jmpq   *0x2043a2(%rip)        # 605018 <strcasecmp@GLIBC_2.2.5>
  400c76:	68 00 00 00 00       	pushq  $0x0
  400c7b:	e9 e0 ff ff ff       	jmpq   400c60 <.plt>

0000000000400c80 <__errno_location@plt>:
  400c80:	ff 25 9a 43 20 00    	jmpq   *0x20439a(%rip)        # 605020 <__errno_location@GLIBC_2.2.5>
  400c86:	68 01 00 00 00       	pushq  $0x1
  400c8b:	e9 d0 ff ff ff       	jmpq   400c60 <.plt>

0000000000400c90 <srandom@plt>:
  400c90:	ff 25 92 43 20 00    	jmpq   *0x204392(%rip)        # 605028 <srandom@GLIBC_2.2.5>
  400c96:	68 02 00 00 00       	pushq  $0x2
  400c9b:	e9 c0 ff ff ff       	jmpq   400c60 <.plt>

0000000000400ca0 <strncmp@plt>:
  400ca0:	ff 25 8a 43 20 00    	jmpq   *0x20438a(%rip)        # 605030 <strncmp@GLIBC_2.2.5>
  400ca6:	68 03 00 00 00       	pushq  $0x3
  400cab:	e9 b0 ff ff ff       	jmpq   400c60 <.plt>

0000000000400cb0 <strcpy@plt>:
  400cb0:	ff 25 82 43 20 00    	jmpq   *0x204382(%rip)        # 605038 <strcpy@GLIBC_2.2.5>
  400cb6:	68 04 00 00 00       	pushq  $0x4
  400cbb:	e9 a0 ff ff ff       	jmpq   400c60 <.plt>

0000000000400cc0 <puts@plt>:
  400cc0:	ff 25 7a 43 20 00    	jmpq   *0x20437a(%rip)        # 605040 <puts@GLIBC_2.2.5>
  400cc6:	68 05 00 00 00       	pushq  $0x5
  400ccb:	e9 90 ff ff ff       	jmpq   400c60 <.plt>

0000000000400cd0 <write@plt>:
  400cd0:	ff 25 72 43 20 00    	jmpq   *0x204372(%rip)        # 605048 <write@GLIBC_2.2.5>
  400cd6:	68 06 00 00 00       	pushq  $0x6
  400cdb:	e9 80 ff ff ff       	jmpq   400c60 <.plt>

0000000000400ce0 <__stack_chk_fail@plt>:
  400ce0:	ff 25 6a 43 20 00    	jmpq   *0x20436a(%rip)        # 605050 <__stack_chk_fail@GLIBC_2.4>
  400ce6:	68 07 00 00 00       	pushq  $0x7
  400ceb:	e9 70 ff ff ff       	jmpq   400c60 <.plt>

0000000000400cf0 <mmap@plt>:
  400cf0:	ff 25 62 43 20 00    	jmpq   *0x204362(%rip)        # 605058 <mmap@GLIBC_2.2.5>
  400cf6:	68 08 00 00 00       	pushq  $0x8
  400cfb:	e9 60 ff ff ff       	jmpq   400c60 <.plt>

0000000000400d00 <memset@plt>:
  400d00:	ff 25 5a 43 20 00    	jmpq   *0x20435a(%rip)        # 605060 <memset@GLIBC_2.2.5>
  400d06:	68 09 00 00 00       	pushq  $0x9
  400d0b:	e9 50 ff ff ff       	jmpq   400c60 <.plt>

0000000000400d10 <alarm@plt>:
  400d10:	ff 25 52 43 20 00    	jmpq   *0x204352(%rip)        # 605068 <alarm@GLIBC_2.2.5>
  400d16:	68 0a 00 00 00       	pushq  $0xa
  400d1b:	e9 40 ff ff ff       	jmpq   400c60 <.plt>

0000000000400d20 <close@plt>:
  400d20:	ff 25 4a 43 20 00    	jmpq   *0x20434a(%rip)        # 605070 <close@GLIBC_2.2.5>
  400d26:	68 0b 00 00 00       	pushq  $0xb
  400d2b:	e9 30 ff ff ff       	jmpq   400c60 <.plt>

0000000000400d30 <read@plt>:
  400d30:	ff 25 42 43 20 00    	jmpq   *0x204342(%rip)        # 605078 <read@GLIBC_2.2.5>
  400d36:	68 0c 00 00 00       	pushq  $0xc
  400d3b:	e9 20 ff ff ff       	jmpq   400c60 <.plt>

0000000000400d40 <signal@plt>:
  400d40:	ff 25 3a 43 20 00    	jmpq   *0x20433a(%rip)        # 605080 <signal@GLIBC_2.2.5>
  400d46:	68 0d 00 00 00       	pushq  $0xd
  400d4b:	e9 10 ff ff ff       	jmpq   400c60 <.plt>

0000000000400d50 <gethostbyname@plt>:
  400d50:	ff 25 32 43 20 00    	jmpq   *0x204332(%rip)        # 605088 <gethostbyname@GLIBC_2.2.5>
  400d56:	68 0e 00 00 00       	pushq  $0xe
  400d5b:	e9 00 ff ff ff       	jmpq   400c60 <.plt>

0000000000400d60 <__memmove_chk@plt>:
  400d60:	ff 25 2a 43 20 00    	jmpq   *0x20432a(%rip)        # 605090 <__memmove_chk@GLIBC_2.3.4>
  400d66:	68 0f 00 00 00       	pushq  $0xf
  400d6b:	e9 f0 fe ff ff       	jmpq   400c60 <.plt>

0000000000400d70 <strtol@plt>:
  400d70:	ff 25 22 43 20 00    	jmpq   *0x204322(%rip)        # 605098 <strtol@GLIBC_2.2.5>
  400d76:	68 10 00 00 00       	pushq  $0x10
  400d7b:	e9 e0 fe ff ff       	jmpq   400c60 <.plt>

0000000000400d80 <memcpy@plt>:
  400d80:	ff 25 1a 43 20 00    	jmpq   *0x20431a(%rip)        # 6050a0 <memcpy@GLIBC_2.14>
  400d86:	68 11 00 00 00       	pushq  $0x11
  400d8b:	e9 d0 fe ff ff       	jmpq   400c60 <.plt>

0000000000400d90 <time@plt>:
  400d90:	ff 25 12 43 20 00    	jmpq   *0x204312(%rip)        # 6050a8 <time@GLIBC_2.2.5>
  400d96:	68 12 00 00 00       	pushq  $0x12
  400d9b:	e9 c0 fe ff ff       	jmpq   400c60 <.plt>

0000000000400da0 <random@plt>:
  400da0:	ff 25 0a 43 20 00    	jmpq   *0x20430a(%rip)        # 6050b0 <random@GLIBC_2.2.5>
  400da6:	68 13 00 00 00       	pushq  $0x13
  400dab:	e9 b0 fe ff ff       	jmpq   400c60 <.plt>

0000000000400db0 <_IO_getc@plt>:
  400db0:	ff 25 02 43 20 00    	jmpq   *0x204302(%rip)        # 6050b8 <_IO_getc@GLIBC_2.2.5>
  400db6:	68 14 00 00 00       	pushq  $0x14
  400dbb:	e9 a0 fe ff ff       	jmpq   400c60 <.plt>

0000000000400dc0 <__isoc99_sscanf@plt>:
  400dc0:	ff 25 fa 42 20 00    	jmpq   *0x2042fa(%rip)        # 6050c0 <__isoc99_sscanf@GLIBC_2.7>
  400dc6:	68 15 00 00 00       	pushq  $0x15
  400dcb:	e9 90 fe ff ff       	jmpq   400c60 <.plt>

0000000000400dd0 <munmap@plt>:
  400dd0:	ff 25 f2 42 20 00    	jmpq   *0x2042f2(%rip)        # 6050c8 <munmap@GLIBC_2.2.5>
  400dd6:	68 16 00 00 00       	pushq  $0x16
  400ddb:	e9 80 fe ff ff       	jmpq   400c60 <.plt>

0000000000400de0 <__printf_chk@plt>:
  400de0:	ff 25 ea 42 20 00    	jmpq   *0x2042ea(%rip)        # 6050d0 <__printf_chk@GLIBC_2.3.4>
  400de6:	68 17 00 00 00       	pushq  $0x17
  400deb:	e9 70 fe ff ff       	jmpq   400c60 <.plt>

0000000000400df0 <fopen@plt>:
  400df0:	ff 25 e2 42 20 00    	jmpq   *0x2042e2(%rip)        # 6050d8 <fopen@GLIBC_2.2.5>
  400df6:	68 18 00 00 00       	pushq  $0x18
  400dfb:	e9 60 fe ff ff       	jmpq   400c60 <.plt>

0000000000400e00 <getopt@plt>:
  400e00:	ff 25 da 42 20 00    	jmpq   *0x2042da(%rip)        # 6050e0 <getopt@GLIBC_2.2.5>
  400e06:	68 19 00 00 00       	pushq  $0x19
  400e0b:	e9 50 fe ff ff       	jmpq   400c60 <.plt>

0000000000400e10 <strtoul@plt>:
  400e10:	ff 25 d2 42 20 00    	jmpq   *0x2042d2(%rip)        # 6050e8 <strtoul@GLIBC_2.2.5>
  400e16:	68 1a 00 00 00       	pushq  $0x1a
  400e1b:	e9 40 fe ff ff       	jmpq   400c60 <.plt>

0000000000400e20 <gethostname@plt>:
  400e20:	ff 25 ca 42 20 00    	jmpq   *0x2042ca(%rip)        # 6050f0 <gethostname@GLIBC_2.2.5>
  400e26:	68 1b 00 00 00       	pushq  $0x1b
  400e2b:	e9 30 fe ff ff       	jmpq   400c60 <.plt>

0000000000400e30 <exit@plt>:
  400e30:	ff 25 c2 42 20 00    	jmpq   *0x2042c2(%rip)        # 6050f8 <exit@GLIBC_2.2.5>
  400e36:	68 1c 00 00 00       	pushq  $0x1c
  400e3b:	e9 20 fe ff ff       	jmpq   400c60 <.plt>

0000000000400e40 <connect@plt>:
  400e40:	ff 25 ba 42 20 00    	jmpq   *0x2042ba(%rip)        # 605100 <connect@GLIBC_2.2.5>
  400e46:	68 1d 00 00 00       	pushq  $0x1d
  400e4b:	e9 10 fe ff ff       	jmpq   400c60 <.plt>

0000000000400e50 <__fprintf_chk@plt>:
  400e50:	ff 25 b2 42 20 00    	jmpq   *0x2042b2(%rip)        # 605108 <__fprintf_chk@GLIBC_2.3.4>
  400e56:	68 1e 00 00 00       	pushq  $0x1e
  400e5b:	e9 00 fe ff ff       	jmpq   400c60 <.plt>

0000000000400e60 <__sprintf_chk@plt>:
  400e60:	ff 25 aa 42 20 00    	jmpq   *0x2042aa(%rip)        # 605110 <__sprintf_chk@GLIBC_2.3.4>
  400e66:	68 1f 00 00 00       	pushq  $0x1f
  400e6b:	e9 f0 fd ff ff       	jmpq   400c60 <.plt>

0000000000400e70 <socket@plt>:
  400e70:	ff 25 a2 42 20 00    	jmpq   *0x2042a2(%rip)        # 605118 <socket@GLIBC_2.2.5>
  400e76:	68 20 00 00 00       	pushq  $0x20
  400e7b:	e9 e0 fd ff ff       	jmpq   400c60 <.plt>

Disassembly of section .text:

0000000000400e80 <_start>:
  400e80:	31 ed                	xor    %ebp,%ebp
  400e82:	49 89 d1             	mov    %rdx,%r9
  400e85:	5e                   	pop    %rsi
  400e86:	48 89 e2             	mov    %rsp,%rdx
  400e89:	48 83 e4 f0          	and    $0xfffffffffffffff0,%rsp
  400e8d:	50                   	push   %rax
  400e8e:	54                   	push   %rsp
  400e8f:	49 c7 c0 f0 2e 40 00 	mov    $0x402ef0,%r8
  400e96:	48 c7 c1 80 2e 40 00 	mov    $0x402e80,%rcx
  400e9d:	48 c7 c7 73 11 40 00 	mov    $0x401173,%rdi
  400ea4:	ff 15 46 41 20 00    	callq  *0x204146(%rip)        # 604ff0 <__libc_start_main@GLIBC_2.2.5>
  400eaa:	f4                   	hlt    
  400eab:	0f 1f 44 00 00       	nopl   0x0(%rax,%rax,1)

0000000000400eb0 <_dl_relocate_static_pie>:
  400eb0:	f3 c3                	repz retq 
  400eb2:	66 2e 0f 1f 84 00 00 	nopw   %cs:0x0(%rax,%rax,1)
  400eb9:	00 00 00 
  400ebc:	0f 1f 40 00          	nopl   0x0(%rax)

0000000000400ec0 <deregister_tm_clones>:
  400ec0:	55                   	push   %rbp
  400ec1:	b8 90 54 60 00       	mov    $0x605490,%eax
  400ec6:	48 3d 90 54 60 00    	cmp    $0x605490,%rax
  400ecc:	48 89 e5             	mov    %rsp,%rbp
  400ecf:	74 17                	je     400ee8 <deregister_tm_clones+0x28>
  400ed1:	b8 00 00 00 00       	mov    $0x0,%eax
  400ed6:	48 85 c0             	test   %rax,%rax
  400ed9:	74 0d                	je     400ee8 <deregister_tm_clones+0x28>
  400edb:	5d                   	pop    %rbp
  400edc:	bf 90 54 60 00       	mov    $0x605490,%edi
  400ee1:	ff e0                	jmpq   *%rax
  400ee3:	0f 1f 44 00 00       	nopl   0x0(%rax,%rax,1)
  400ee8:	5d                   	pop    %rbp
  400ee9:	c3                   	retq   
  400eea:	66 0f 1f 44 00 00    	nopw   0x0(%rax,%rax,1)

0000000000400ef0 <register_tm_clones>:
  400ef0:	be 90 54 60 00       	mov    $0x605490,%esi
  400ef5:	55                   	push   %rbp
  400ef6:	48 81 ee 90 54 60 00 	sub    $0x605490,%rsi
  400efd:	48 89 e5             	mov    %rsp,%rbp
  400f00:	48 c1 fe 03          	sar    $0x3,%rsi
  400f04:	48 89 f0             	mov    %rsi,%rax
  400f07:	48 c1 e8 3f          	shr    $0x3f,%rax
  400f0b:	48 01 c6             	add    %rax,%rsi
  400f0e:	48 d1 fe             	sar    %rsi
  400f11:	74 15                	je     400f28 <register_tm_clones+0x38>
  400f13:	b8 00 00 00 00       	mov    $0x0,%eax
  400f18:	48 85 c0             	test   %rax,%rax
  400f1b:	74 0b                	je     400f28 <register_tm_clones+0x38>
  400f1d:	5d                   	pop    %rbp
  400f1e:	bf 90 54 60 00       	mov    $0x605490,%edi
  400f23:	ff e0                	jmpq   *%rax
  400f25:	0f 1f 00             	nopl   (%rax)
  400f28:	5d                   	pop    %rbp
  400f29:	c3                   	retq   
  400f2a:	66 0f 1f 44 00 00    	nopw   0x0(%rax,%rax,1)

0000000000400f30 <__do_global_dtors_aux>:
  400f30:	80 3d 91 45 20 00 00 	cmpb   $0x0,0x204591(%rip)        # 6054c8 <completed.7698>
  400f37:	75 17                	jne    400f50 <__do_global_dtors_aux+0x20>
  400f39:	55                   	push   %rbp
  400f3a:	48 89 e5             	mov    %rsp,%rbp
  400f3d:	e8 7e ff ff ff       	callq  400ec0 <deregister_tm_clones>
  400f42:	c6 05 7f 45 20 00 01 	movb   $0x1,0x20457f(%rip)        # 6054c8 <completed.7698>
  400f49:	5d                   	pop    %rbp
  400f4a:	c3                   	retq   
  400f4b:	0f 1f 44 00 00       	nopl   0x0(%rax,%rax,1)
  400f50:	f3 c3                	repz retq 
  400f52:	0f 1f 40 00          	nopl   0x0(%rax)
  400f56:	66 2e 0f 1f 84 00 00 	nopw   %cs:0x0(%rax,%rax,1)
  400f5d:	00 00 00 

0000000000400f60 <frame_dummy>:
  400f60:	55                   	push   %rbp
  400f61:	48 89 e5             	mov    %rsp,%rbp
  400f64:	5d                   	pop    %rbp
  400f65:	eb 89                	jmp    400ef0 <register_tm_clones>

0000000000400f67 <usage>:
  400f67:	48 83 ec 08          	sub    $0x8,%rsp
  400f6b:	48 89 fa             	mov    %rdi,%rdx
  400f6e:	83 3d 93 45 20 00 00 	cmpl   $0x0,0x204593(%rip)        # 605508 <is_checker>
  400f75:	74 46                	je     400fbd <usage+0x56>
  400f77:	be 08 2f 40 00       	mov    $0x402f08,%esi
  400f7c:	bf 01 00 00 00       	mov    $0x1,%edi
  400f81:	b8 00 00 00 00       	mov    $0x0,%eax
  400f86:	e8 55 fe ff ff       	callq  400de0 <__printf_chk@plt>
  400f8b:	bf 40 2f 40 00       	mov    $0x402f40,%edi
  400f90:	e8 2b fd ff ff       	callq  400cc0 <puts@plt>
  400f95:	bf b8 30 40 00       	mov    $0x4030b8,%edi
  400f9a:	e8 21 fd ff ff       	callq  400cc0 <puts@plt>
  400f9f:	bf 68 2f 40 00       	mov    $0x402f68,%edi
  400fa4:	e8 17 fd ff ff       	callq  400cc0 <puts@plt>
  400fa9:	bf d2 30 40 00       	mov    $0x4030d2,%edi
  400fae:	e8 0d fd ff ff       	callq  400cc0 <puts@plt>
  400fb3:	bf 00 00 00 00       	mov    $0x0,%edi
  400fb8:	e8 73 fe ff ff       	callq  400e30 <exit@plt>
  400fbd:	be ee 30 40 00       	mov    $0x4030ee,%esi
  400fc2:	bf 01 00 00 00       	mov    $0x1,%edi
  400fc7:	b8 00 00 00 00       	mov    $0x0,%eax
  400fcc:	e8 0f fe ff ff       	callq  400de0 <__printf_chk@plt>
  400fd1:	bf 90 2f 40 00       	mov    $0x402f90,%edi
  400fd6:	e8 e5 fc ff ff       	callq  400cc0 <puts@plt>
  400fdb:	bf b8 2f 40 00       	mov    $0x402fb8,%edi
  400fe0:	e8 db fc ff ff       	callq  400cc0 <puts@plt>
  400fe5:	bf 0c 31 40 00       	mov    $0x40310c,%edi
  400fea:	e8 d1 fc ff ff       	callq  400cc0 <puts@plt>
  400fef:	eb c2                	jmp    400fb3 <usage+0x4c>

0000000000400ff1 <initialize_target>:
  400ff1:	55                   	push   %rbp
  400ff2:	53                   	push   %rbx
  400ff3:	48 81 ec 18 21 00 00 	sub    $0x2118,%rsp
  400ffa:	89 f5                	mov    %esi,%ebp
  400ffc:	64 48 8b 04 25 28 00 	mov    %fs:0x28,%rax
  401003:	00 00 
  401005:	48 89 84 24 08 21 00 	mov    %rax,0x2108(%rsp)
  40100c:	00 
  40100d:	31 c0                	xor    %eax,%eax
  40100f:	89 3d e3 44 20 00    	mov    %edi,0x2044e3(%rip)        # 6054f8 <check_level>
  401015:	8b 3d 2d 41 20 00    	mov    0x20412d(%rip),%edi        # 605148 <target_id>
  40101b:	e8 33 1e 00 00       	callq  402e53 <gencookie>
  401020:	89 05 de 44 20 00    	mov    %eax,0x2044de(%rip)        # 605504 <cookie>
  401026:	89 c7                	mov    %eax,%edi
  401028:	e8 26 1e 00 00       	callq  402e53 <gencookie>
  40102d:	89 05 cd 44 20 00    	mov    %eax,0x2044cd(%rip)        # 605500 <authkey>
  401033:	8b 05 0f 41 20 00    	mov    0x20410f(%rip),%eax        # 605148 <target_id>
  401039:	8d 78 01             	lea    0x1(%rax),%edi
  40103c:	e8 4f fc ff ff       	callq  400c90 <srandom@plt>
  401041:	e8 5a fd ff ff       	callq  400da0 <random@plt>
  401046:	89 c7                	mov    %eax,%edi
  401048:	e8 f2 02 00 00       	callq  40133f <scramble>
  40104d:	89 c3                	mov    %eax,%ebx
  40104f:	85 ed                	test   %ebp,%ebp
  401051:	75 54                	jne    4010a7 <initialize_target+0xb6>
  401053:	b8 00 00 00 00       	mov    $0x0,%eax
  401058:	01 d8                	add    %ebx,%eax
  40105a:	0f b7 c0             	movzwl %ax,%eax
  40105d:	8d 04 c5 00 01 00 00 	lea    0x100(,%rax,8),%eax
  401064:	89 c0                	mov    %eax,%eax
  401066:	48 89 05 13 44 20 00 	mov    %rax,0x204413(%rip)        # 605480 <buf_offset>
  40106d:	c6 05 b4 50 20 00 63 	movb   $0x63,0x2050b4(%rip)        # 606128 <target_prefix>
  401074:	83 3d 0d 44 20 00 00 	cmpl   $0x0,0x20440d(%rip)        # 605488 <notify>
  40107b:	74 09                	je     401086 <initialize_target+0x95>
  40107d:	83 3d 84 44 20 00 00 	cmpl   $0x0,0x204484(%rip)        # 605508 <is_checker>
  401084:	74 39                	je     4010bf <initialize_target+0xce>
  401086:	48 8b 84 24 08 21 00 	mov    0x2108(%rsp),%rax
  40108d:	00 
  40108e:	64 48 33 04 25 28 00 	xor    %fs:0x28,%rax
  401095:	00 00 
  401097:	0f 85 d1 00 00 00    	jne    40116e <initialize_target+0x17d>
  40109d:	48 81 c4 18 21 00 00 	add    $0x2118,%rsp
  4010a4:	5b                   	pop    %rbx
  4010a5:	5d                   	pop    %rbp
  4010a6:	c3                   	retq   
  4010a7:	bf 00 00 00 00       	mov    $0x0,%edi
  4010ac:	e8 df fc ff ff       	callq  400d90 <time@plt>
  4010b1:	89 c7                	mov    %eax,%edi
  4010b3:	e8 d8 fb ff ff       	callq  400c90 <srandom@plt>
  4010b8:	e8 e3 fc ff ff       	callq  400da0 <random@plt>
  4010bd:	eb 99                	jmp    401058 <initialize_target+0x67>
  4010bf:	be 00 01 00 00       	mov    $0x100,%esi
  4010c4:	48 89 e7             	mov    %rsp,%rdi
  4010c7:	e8 54 fd ff ff       	callq  400e20 <gethostname@plt>
  4010cc:	89 c5                	mov    %eax,%ebp
  4010ce:	85 c0                	test   %eax,%eax
  4010d0:	75 23                	jne    4010f5 <initialize_target+0x104>
  4010d2:	89 c3                	mov    %eax,%ebx
  4010d4:	48 63 c3             	movslq %ebx,%rax
  4010d7:	48 8b 3c c5 60 51 60 	mov    0x605160(,%rax,8),%rdi
  4010de:	00 
  4010df:	48 85 ff             	test   %rdi,%rdi
  4010e2:	74 2a                	je     40110e <initialize_target+0x11d>
  4010e4:	48 89 e6             	mov    %rsp,%rsi
  4010e7:	e8 84 fb ff ff       	callq  400c70 <strcasecmp@plt>
  4010ec:	85 c0                	test   %eax,%eax
  4010ee:	74 19                	je     401109 <initialize_target+0x118>
  4010f0:	83 c3 01             	add    $0x1,%ebx
  4010f3:	eb df                	jmp    4010d4 <initialize_target+0xe3>
  4010f5:	bf e8 2f 40 00       	mov    $0x402fe8,%edi
  4010fa:	e8 c1 fb ff ff       	callq  400cc0 <puts@plt>
  4010ff:	bf 08 00 00 00       	mov    $0x8,%edi
  401104:	e8 27 fd ff ff       	callq  400e30 <exit@plt>
  401109:	bd 01 00 00 00       	mov    $0x1,%ebp
  40110e:	85 ed                	test   %ebp,%ebp
  401110:	74 3b                	je     40114d <initialize_target+0x15c>
  401112:	48 8d bc 24 00 01 00 	lea    0x100(%rsp),%rdi
  401119:	00 
  40111a:	e8 89 1a 00 00       	callq  402ba8 <init_driver>
  40111f:	85 c0                	test   %eax,%eax
  401121:	0f 89 5f ff ff ff    	jns    401086 <initialize_target+0x95>
  401127:	48 8d 94 24 00 01 00 	lea    0x100(%rsp),%rdx
  40112e:	00 
  40112f:	be 60 30 40 00       	mov    $0x403060,%esi
  401134:	bf 01 00 00 00       	mov    $0x1,%edi
  401139:	b8 00 00 00 00       	mov    $0x0,%eax
  40113e:	e8 9d fc ff ff       	callq  400de0 <__printf_chk@plt>
  401143:	bf 08 00 00 00       	mov    $0x8,%edi
  401148:	e8 e3 fc ff ff       	callq  400e30 <exit@plt>
  40114d:	48 89 e2             	mov    %rsp,%rdx
  401150:	be 20 30 40 00       	mov    $0x403020,%esi
  401155:	bf 01 00 00 00       	mov    $0x1,%edi
  40115a:	b8 00 00 00 00       	mov    $0x0,%eax
  40115f:	e8 7c fc ff ff       	callq  400de0 <__printf_chk@plt>
  401164:	bf 08 00 00 00       	mov    $0x8,%edi
  401169:	e8 c2 fc ff ff       	callq  400e30 <exit@plt>
  40116e:	e8 6d fb ff ff       	callq  400ce0 <__stack_chk_fail@plt>

0000000000401173 <main>:
  401173:	41 56                	push   %r14
  401175:	41 55                	push   %r13
  401177:	41 54                	push   %r12
  401179:	55                   	push   %rbp
  40117a:	53                   	push   %rbx
  40117b:	41 89 fc             	mov    %edi,%r12d
  40117e:	48 89 f3             	mov    %rsi,%rbx
  401181:	be e5 1e 40 00       	mov    $0x401ee5,%esi
  401186:	bf 0b 00 00 00       	mov    $0xb,%edi
  40118b:	e8 b0 fb ff ff       	callq  400d40 <signal@plt>
  401190:	be 97 1e 40 00       	mov    $0x401e97,%esi
  401195:	bf 07 00 00 00       	mov    $0x7,%edi
  40119a:	e8 a1 fb ff ff       	callq  400d40 <signal@plt>
  40119f:	be 33 1f 40 00       	mov    $0x401f33,%esi
  4011a4:	bf 04 00 00 00       	mov    $0x4,%edi
  4011a9:	e8 92 fb ff ff       	callq  400d40 <signal@plt>
  4011ae:	83 3d 53 43 20 00 00 	cmpl   $0x0,0x204353(%rip)        # 605508 <is_checker>
  4011b5:	75 24                	jne    4011db <main+0x68>
  4011b7:	bd 25 31 40 00       	mov    $0x403125,%ebp
  4011bc:	48 8b 05 dd 42 20 00 	mov    0x2042dd(%rip),%rax        # 6054a0 <stdin@@GLIBC_2.2.5>
  4011c3:	48 89 05 26 43 20 00 	mov    %rax,0x204326(%rip)        # 6054f0 <infile>
  4011ca:	41 bd 00 00 00 00    	mov    $0x0,%r13d
  4011d0:	41 be 00 00 00 00    	mov    $0x0,%r14d
  4011d6:	e9 85 00 00 00       	jmpq   401260 <main+0xed>
  4011db:	be 81 1f 40 00       	mov    $0x401f81,%esi
  4011e0:	bf 0e 00 00 00       	mov    $0xe,%edi
  4011e5:	e8 56 fb ff ff       	callq  400d40 <signal@plt>
  4011ea:	bf 05 00 00 00       	mov    $0x5,%edi
  4011ef:	e8 1c fb ff ff       	callq  400d10 <alarm@plt>
  4011f4:	bd 2a 31 40 00       	mov    $0x40312a,%ebp
  4011f9:	eb c1                	jmp    4011bc <main+0x49>
  4011fb:	48 8b 3b             	mov    (%rbx),%rdi
  4011fe:	e8 64 fd ff ff       	callq  400f67 <usage>
  401203:	be f5 33 40 00       	mov    $0x4033f5,%esi
  401208:	48 8b 3d 99 42 20 00 	mov    0x204299(%rip),%rdi        # 6054a8 <optarg@@GLIBC_2.2.5>
  40120f:	e8 dc fb ff ff       	callq  400df0 <fopen@plt>
  401214:	48 89 05 d5 42 20 00 	mov    %rax,0x2042d5(%rip)        # 6054f0 <infile>
  40121b:	48 85 c0             	test   %rax,%rax
  40121e:	75 40                	jne    401260 <main+0xed>
  401220:	48 8b 0d 81 42 20 00 	mov    0x204281(%rip),%rcx        # 6054a8 <optarg@@GLIBC_2.2.5>
  401227:	ba 32 31 40 00       	mov    $0x403132,%edx
  40122c:	be 01 00 00 00       	mov    $0x1,%esi
  401231:	48 8b 3d 88 42 20 00 	mov    0x204288(%rip),%rdi        # 6054c0 <stderr@@GLIBC_2.2.5>
  401238:	e8 13 fc ff ff       	callq  400e50 <__fprintf_chk@plt>
  40123d:	b8 01 00 00 00       	mov    $0x1,%eax
  401242:	e9 cc 00 00 00       	jmpq   401313 <main+0x1a0>
  401247:	ba 10 00 00 00       	mov    $0x10,%edx
  40124c:	be 00 00 00 00       	mov    $0x0,%esi
  401251:	48 8b 3d 50 42 20 00 	mov    0x204250(%rip),%rdi        # 6054a8 <optarg@@GLIBC_2.2.5>
  401258:	e8 b3 fb ff ff       	callq  400e10 <strtoul@plt>
  40125d:	41 89 c6             	mov    %eax,%r14d
  401260:	48 89 ea             	mov    %rbp,%rdx
  401263:	48 89 de             	mov    %rbx,%rsi
  401266:	44 89 e7             	mov    %r12d,%edi
  401269:	e8 92 fb ff ff       	callq  400e00 <getopt@plt>
  40126e:	3c ff                	cmp    $0xff,%al
  401270:	74 57                	je     4012c9 <main+0x156>
  401272:	0f be d0             	movsbl %al,%edx
  401275:	83 e8 61             	sub    $0x61,%eax
  401278:	3c 10                	cmp    $0x10,%al
  40127a:	77 31                	ja     4012ad <main+0x13a>
  40127c:	0f b6 c0             	movzbl %al,%eax
  40127f:	ff 24 c5 70 31 40 00 	jmpq   *0x403170(,%rax,8)
  401286:	ba 0a 00 00 00       	mov    $0xa,%edx
  40128b:	be 00 00 00 00       	mov    $0x0,%esi
  401290:	48 8b 3d 11 42 20 00 	mov    0x204211(%rip),%rdi        # 6054a8 <optarg@@GLIBC_2.2.5>
  401297:	e8 d4 fa ff ff       	callq  400d70 <strtol@plt>
  40129c:	41 89 c5             	mov    %eax,%r13d
  40129f:	eb bf                	jmp    401260 <main+0xed>
  4012a1:	c7 05 dd 41 20 00 00 	movl   $0x0,0x2041dd(%rip)        # 605488 <notify>
  4012a8:	00 00 00 
  4012ab:	eb b3                	jmp    401260 <main+0xed>
  4012ad:	be 4f 31 40 00       	mov    $0x40314f,%esi
  4012b2:	bf 01 00 00 00       	mov    $0x1,%edi
  4012b7:	b8 00 00 00 00       	mov    $0x0,%eax
  4012bc:	e8 1f fb ff ff       	callq  400de0 <__printf_chk@plt>
  4012c1:	48 8b 3b             	mov    (%rbx),%rdi
  4012c4:	e8 9e fc ff ff       	callq  400f67 <usage>
  4012c9:	be 00 00 00 00       	mov    $0x0,%esi
  4012ce:	44 89 ef             	mov    %r13d,%edi
  4012d1:	e8 1b fd ff ff       	callq  400ff1 <initialize_target>
  4012d6:	83 3d 2b 42 20 00 00 	cmpl   $0x0,0x20422b(%rip)        # 605508 <is_checker>
  4012dd:	74 09                	je     4012e8 <main+0x175>
  4012df:	44 39 35 1a 42 20 00 	cmp    %r14d,0x20421a(%rip)        # 605500 <authkey>
  4012e6:	75 34                	jne    40131c <main+0x1a9>
  4012e8:	8b 15 16 42 20 00    	mov    0x204216(%rip),%edx        # 605504 <cookie>
  4012ee:	be 62 31 40 00       	mov    $0x403162,%esi
  4012f3:	bf 01 00 00 00       	mov    $0x1,%edi
  4012f8:	b8 00 00 00 00       	mov    $0x0,%eax
  4012fd:	e8 de fa ff ff       	callq  400de0 <__printf_chk@plt>
  401302:	48 8b 3d 77 41 20 00 	mov    0x204177(%rip),%rdi        # 605480 <buf_offset>
  401309:	e8 75 0d 00 00       	callq  402083 <stable_launch>
  40130e:	b8 00 00 00 00       	mov    $0x0,%eax
  401313:	5b                   	pop    %rbx
  401314:	5d                   	pop    %rbp
  401315:	41 5c                	pop    %r12
  401317:	41 5d                	pop    %r13
  401319:	41 5e                	pop    %r14
  40131b:	c3                   	retq   
  40131c:	44 89 f2             	mov    %r14d,%edx
  40131f:	be 88 30 40 00       	mov    $0x403088,%esi
  401324:	bf 01 00 00 00       	mov    $0x1,%edi
  401329:	b8 00 00 00 00       	mov    $0x0,%eax
  40132e:	e8 ad fa ff ff       	callq  400de0 <__printf_chk@plt>
  401333:	b8 00 00 00 00       	mov    $0x0,%eax
  401338:	e8 e3 07 00 00       	callq  401b20 <check_fail>
  40133d:	eb a9                	jmp    4012e8 <main+0x175>

000000000040133f <scramble>:
  40133f:	48 83 ec 38          	sub    $0x38,%rsp
  401343:	64 48 8b 04 25 28 00 	mov    %fs:0x28,%rax
  40134a:	00 00 
  40134c:	48 89 44 24 28       	mov    %rax,0x28(%rsp)
  401351:	31 c0                	xor    %eax,%eax
  401353:	eb 10                	jmp    401365 <scramble+0x26>
  401355:	69 d0 fd ed 00 00    	imul   $0xedfd,%eax,%edx
  40135b:	01 fa                	add    %edi,%edx
  40135d:	89 c1                	mov    %eax,%ecx
  40135f:	89 14 8c             	mov    %edx,(%rsp,%rcx,4)
  401362:	83 c0 01             	add    $0x1,%eax
  401365:	83 f8 09             	cmp    $0x9,%eax
  401368:	76 eb                	jbe    401355 <scramble+0x16>
  40136a:	8b 44 24 08          	mov    0x8(%rsp),%eax
  40136e:	69 c0 89 aa 00 00    	imul   $0xaa89,%eax,%eax
  401374:	89 44 24 08          	mov    %eax,0x8(%rsp)
  401378:	8b 44 24 0c          	mov    0xc(%rsp),%eax
  40137c:	69 c0 c3 bf 00 00    	imul   $0xbfc3,%eax,%eax
  401382:	89 44 24 0c          	mov    %eax,0xc(%rsp)
  401386:	8b 44 24 0c          	mov    0xc(%rsp),%eax
  40138a:	69 c0 77 1b 00 00    	imul   $0x1b77,%eax,%eax
  401390:	89 44 24 0c          	mov    %eax,0xc(%rsp)
  401394:	8b 44 24 20          	mov    0x20(%rsp),%eax
  401398:	69 c0 af b2 00 00    	imul   $0xb2af,%eax,%eax
  40139e:	89 44 24 20          	mov    %eax,0x20(%rsp)
  4013a2:	8b 44 24 14          	mov    0x14(%rsp),%eax
  4013a6:	69 c0 8d 31 00 00    	imul   $0x318d,%eax,%eax
  4013ac:	89 44 24 14          	mov    %eax,0x14(%rsp)
  4013b0:	8b 44 24 04          	mov    0x4(%rsp),%eax
  4013b4:	69 c0 4f 12 00 00    	imul   $0x124f,%eax,%eax
  4013ba:	89 44 24 04          	mov    %eax,0x4(%rsp)
  4013be:	8b 44 24 08          	mov    0x8(%rsp),%eax
  4013c2:	69 c0 24 4e 00 00    	imul   $0x4e24,%eax,%eax
  4013c8:	89 44 24 08          	mov    %eax,0x8(%rsp)
  4013cc:	8b 44 24 10          	mov    0x10(%rsp),%eax
  4013d0:	69 c0 8d 3b 00 00    	imul   $0x3b8d,%eax,%eax
  4013d6:	89 44 24 10          	mov    %eax,0x10(%rsp)
  4013da:	8b 44 24 0c          	mov    0xc(%rsp),%eax
  4013de:	69 c0 fd 53 00 00    	imul   $0x53fd,%eax,%eax
  4013e4:	89 44 24 0c          	mov    %eax,0xc(%rsp)
  4013e8:	8b 44 24 10          	mov    0x10(%rsp),%eax
  4013ec:	69 c0 2f a9 00 00    	imul   $0xa92f,%eax,%eax
  4013f2:	89 44 24 10          	mov    %eax,0x10(%rsp)
  4013f6:	8b 44 24 10          	mov    0x10(%rsp),%eax
  4013fa:	69 c0 a5 1c 00 00    	imul   $0x1ca5,%eax,%eax
  401400:	89 44 24 10          	mov    %eax,0x10(%rsp)
  401404:	8b 44 24 14          	mov    0x14(%rsp),%eax
  401408:	69 c0 7e 8a 00 00    	imul   $0x8a7e,%eax,%eax
  40140e:	89 44 24 14          	mov    %eax,0x14(%rsp)
  401412:	8b 44 24 08          	mov    0x8(%rsp),%eax
  401416:	69 c0 1c 46 00 00    	imul   $0x461c,%eax,%eax
  40141c:	89 44 24 08          	mov    %eax,0x8(%rsp)
  401420:	8b 04 24             	mov    (%rsp),%eax
  401423:	69 c0 93 93 00 00    	imul   $0x9393,%eax,%eax
  401429:	89 04 24             	mov    %eax,(%rsp)
  40142c:	8b 44 24 20          	mov    0x20(%rsp),%eax
  401430:	69 c0 64 16 00 00    	imul   $0x1664,%eax,%eax
  401436:	89 44 24 20          	mov    %eax,0x20(%rsp)
  40143a:	8b 44 24 1c          	mov    0x1c(%rsp),%eax
  40143e:	69 c0 01 a5 00 00    	imul   $0xa501,%eax,%eax
  401444:	89 44 24 1c          	mov    %eax,0x1c(%rsp)
  401448:	8b 44 24 10          	mov    0x10(%rsp),%eax
  40144c:	69 c0 5c 6e 00 00    	imul   $0x6e5c,%eax,%eax
  401452:	89 44 24 10          	mov    %eax,0x10(%rsp)
  401456:	8b 44 24 20          	mov    0x20(%rsp),%eax
  40145a:	69 c0 8d f9 00 00    	imul   $0xf98d,%eax,%eax
  401460:	89 44 24 20          	mov    %eax,0x20(%rsp)
  401464:	8b 44 24 10          	mov    0x10(%rsp),%eax
  401468:	69 c0 a3 0d 00 00    	imul   $0xda3,%eax,%eax
  40146e:	89 44 24 10          	mov    %eax,0x10(%rsp)
  401472:	8b 44 24 20          	mov    0x20(%rsp),%eax
  401476:	69 c0 44 28 00 00    	imul   $0x2844,%eax,%eax
  40147c:	89 44 24 20          	mov    %eax,0x20(%rsp)
  401480:	8b 44 24 24          	mov    0x24(%rsp),%eax
  401484:	69 c0 25 cb 00 00    	imul   $0xcb25,%eax,%eax
  40148a:	89 44 24 24          	mov    %eax,0x24(%rsp)
  40148e:	8b 44 24 24          	mov    0x24(%rsp),%eax
  401492:	69 c0 a0 47 00 00    	imul   $0x47a0,%eax,%eax
  401498:	89 44 24 24          	mov    %eax,0x24(%rsp)
  40149c:	8b 44 24 04          	mov    0x4(%rsp),%eax
  4014a0:	69 c0 15 42 00 00    	imul   $0x4215,%eax,%eax
  4014a6:	89 44 24 04          	mov    %eax,0x4(%rsp)
  4014aa:	8b 44 24 08          	mov    0x8(%rsp),%eax
  4014ae:	69 c0 72 aa 00 00    	imul   $0xaa72,%eax,%eax
  4014b4:	89 44 24 08          	mov    %eax,0x8(%rsp)
  4014b8:	8b 44 24 0c          	mov    0xc(%rsp),%eax
  4014bc:	69 c0 6a d4 00 00    	imul   $0xd46a,%eax,%eax
  4014c2:	89 44 24 0c          	mov    %eax,0xc(%rsp)
  4014c6:	8b 44 24 1c          	mov    0x1c(%rsp),%eax
  4014ca:	69 c0 55 3d 00 00    	imul   $0x3d55,%eax,%eax
  4014d0:	89 44 24 1c          	mov    %eax,0x1c(%rsp)
  4014d4:	8b 44 24 14          	mov    0x14(%rsp),%eax
  4014d8:	69 c0 87 43 00 00    	imul   $0x4387,%eax,%eax
  4014de:	89 44 24 14          	mov    %eax,0x14(%rsp)
  4014e2:	8b 44 24 1c          	mov    0x1c(%rsp),%eax
  4014e6:	69 c0 0c 74 00 00    	imul   $0x740c,%eax,%eax
  4014ec:	89 44 24 1c          	mov    %eax,0x1c(%rsp)
  4014f0:	8b 44 24 18          	mov    0x18(%rsp),%eax
  4014f4:	69 c0 9b 73 00 00    	imul   $0x739b,%eax,%eax
  4014fa:	89 44 24 18          	mov    %eax,0x18(%rsp)
  4014fe:	8b 44 24 1c          	mov    0x1c(%rsp),%eax
  401502:	69 c0 a7 40 00 00    	imul   $0x40a7,%eax,%eax
  401508:	89 44 24 1c          	mov    %eax,0x1c(%rsp)
  40150c:	8b 44 24 14          	mov    0x14(%rsp),%eax
  401510:	69 c0 b0 0f 00 00    	imul   $0xfb0,%eax,%eax
  401516:	89 44 24 14          	mov    %eax,0x14(%rsp)
  40151a:	8b 44 24 18          	mov    0x18(%rsp),%eax
  40151e:	69 c0 ed 4a 00 00    	imul   $0x4aed,%eax,%eax
  401524:	89 44 24 18          	mov    %eax,0x18(%rsp)
  401528:	8b 44 24 18          	mov    0x18(%rsp),%eax
  40152c:	69 c0 6d 4a 00 00    	imul   $0x4a6d,%eax,%eax
  401532:	89 44 24 18          	mov    %eax,0x18(%rsp)
  401536:	8b 44 24 04          	mov    0x4(%rsp),%eax
  40153a:	69 c0 e0 07 00 00    	imul   $0x7e0,%eax,%eax
  401540:	89 44 24 04          	mov    %eax,0x4(%rsp)
  401544:	8b 44 24 1c          	mov    0x1c(%rsp),%eax
  401548:	69 c0 b6 f0 00 00    	imul   $0xf0b6,%eax,%eax
  40154e:	89 44 24 1c          	mov    %eax,0x1c(%rsp)
  401552:	8b 44 24 10          	mov    0x10(%rsp),%eax
  401556:	69 c0 41 97 00 00    	imul   $0x9741,%eax,%eax
  40155c:	89 44 24 10          	mov    %eax,0x10(%rsp)
  401560:	8b 44 24 0c          	mov    0xc(%rsp),%eax
  401564:	69 c0 b8 6a 00 00    	imul   $0x6ab8,%eax,%eax
  40156a:	89 44 24 0c          	mov    %eax,0xc(%rsp)
  40156e:	8b 44 24 20          	mov    0x20(%rsp),%eax
  401572:	69 c0 25 d5 00 00    	imul   $0xd525,%eax,%eax
  401578:	89 44 24 20          	mov    %eax,0x20(%rsp)
  40157c:	8b 44 24 04          	mov    0x4(%rsp),%eax
  401580:	69 c0 0e 62 00 00    	imul   $0x620e,%eax,%eax
  401586:	89 44 24 04          	mov    %eax,0x4(%rsp)
  40158a:	8b 44 24 0c          	mov    0xc(%rsp),%eax
  40158e:	69 c0 e0 42 00 00    	imul   $0x42e0,%eax,%eax
  401594:	89 44 24 0c          	mov    %eax,0xc(%rsp)
  401598:	8b 44 24 04          	mov    0x4(%rsp),%eax
  40159c:	69 c0 38 d3 00 00    	imul   $0xd338,%eax,%eax
  4015a2:	89 44 24 04          	mov    %eax,0x4(%rsp)
  4015a6:	8b 44 24 18          	mov    0x18(%rsp),%eax
  4015aa:	69 c0 88 27 00 00    	imul   $0x2788,%eax,%eax
  4015b0:	89 44 24 18          	mov    %eax,0x18(%rsp)
  4015b4:	8b 44 24 14          	mov    0x14(%rsp),%eax
  4015b8:	69 c0 09 48 00 00    	imul   $0x4809,%eax,%eax
  4015be:	89 44 24 14          	mov    %eax,0x14(%rsp)
  4015c2:	8b 44 24 18          	mov    0x18(%rsp),%eax
  4015c6:	69 c0 63 a0 00 00    	imul   $0xa063,%eax,%eax
  4015cc:	89 44 24 18          	mov    %eax,0x18(%rsp)
  4015d0:	8b 44 24 0c          	mov    0xc(%rsp),%eax
  4015d4:	69 c0 35 a3 00 00    	imul   $0xa335,%eax,%eax
  4015da:	89 44 24 0c          	mov    %eax,0xc(%rsp)
  4015de:	8b 44 24 1c          	mov    0x1c(%rsp),%eax
  4015e2:	69 c0 a4 45 00 00    	imul   $0x45a4,%eax,%eax
  4015e8:	89 44 24 1c          	mov    %eax,0x1c(%rsp)
  4015ec:	8b 44 24 0c          	mov    0xc(%rsp),%eax
  4015f0:	69 c0 b4 c6 00 00    	imul   $0xc6b4,%eax,%eax
  4015f6:	89 44 24 0c          	mov    %eax,0xc(%rsp)
  4015fa:	8b 44 24 24          	mov    0x24(%rsp),%eax
  4015fe:	69 c0 f1 30 00 00    	imul   $0x30f1,%eax,%eax
  401604:	89 44 24 24          	mov    %eax,0x24(%rsp)
  401608:	8b 44 24 08          	mov    0x8(%rsp),%eax
  40160c:	69 c0 0b d5 00 00    	imul   $0xd50b,%eax,%eax
  401612:	89 44 24 08          	mov    %eax,0x8(%rsp)
  401616:	8b 44 24 0c          	mov    0xc(%rsp),%eax
  40161a:	69 c0 32 69 00 00    	imul   $0x6932,%eax,%eax
  401620:	89 44 24 0c          	mov    %eax,0xc(%rsp)
  401624:	8b 44 24 10          	mov    0x10(%rsp),%eax
  401628:	69 c0 f7 68 00 00    	imul   $0x68f7,%eax,%eax
  40162e:	89 44 24 10          	mov    %eax,0x10(%rsp)
  401632:	8b 44 24 14          	mov    0x14(%rsp),%eax
  401636:	69 c0 9d 81 00 00    	imul   $0x819d,%eax,%eax
  40163c:	89 44 24 14          	mov    %eax,0x14(%rsp)
  401640:	8b 44 24 0c          	mov    0xc(%rsp),%eax
  401644:	69 c0 55 df 00 00    	imul   $0xdf55,%eax,%eax
  40164a:	89 44 24 0c          	mov    %eax,0xc(%rsp)
  40164e:	8b 44 24 18          	mov    0x18(%rsp),%eax
  401652:	69 c0 7d 80 00 00    	imul   $0x807d,%eax,%eax
  401658:	89 44 24 18          	mov    %eax,0x18(%rsp)
  40165c:	8b 44 24 20          	mov    0x20(%rsp),%eax
  401660:	69 c0 5a d6 00 00    	imul   $0xd65a,%eax,%eax
  401666:	89 44 24 20          	mov    %eax,0x20(%rsp)
  40166a:	8b 44 24 0c          	mov    0xc(%rsp),%eax
  40166e:	69 c0 dd 77 00 00    	imul   $0x77dd,%eax,%eax
  401674:	89 44 24 0c          	mov    %eax,0xc(%rsp)
  401678:	8b 44 24 04          	mov    0x4(%rsp),%eax
  40167c:	69 c0 93 43 00 00    	imul   $0x4393,%eax,%eax
  401682:	89 44 24 04          	mov    %eax,0x4(%rsp)
  401686:	8b 44 24 20          	mov    0x20(%rsp),%eax
  40168a:	69 c0 53 c0 00 00    	imul   $0xc053,%eax,%eax
  401690:	89 44 24 20          	mov    %eax,0x20(%rsp)
  401694:	8b 44 24 10          	mov    0x10(%rsp),%eax
  401698:	69 c0 fa 3a 00 00    	imul   $0x3afa,%eax,%eax
  40169e:	89 44 24 10          	mov    %eax,0x10(%rsp)
  4016a2:	8b 44 24 24          	mov    0x24(%rsp),%eax
  4016a6:	69 c0 41 47 00 00    	imul   $0x4741,%eax,%eax
  4016ac:	89 44 24 24          	mov    %eax,0x24(%rsp)
  4016b0:	8b 44 24 0c          	mov    0xc(%rsp),%eax
  4016b4:	69 c0 c1 41 00 00    	imul   $0x41c1,%eax,%eax
  4016ba:	89 44 24 0c          	mov    %eax,0xc(%rsp)
  4016be:	8b 44 24 1c          	mov    0x1c(%rsp),%eax
  4016c2:	69 c0 14 91 00 00    	imul   $0x9114,%eax,%eax
  4016c8:	89 44 24 1c          	mov    %eax,0x1c(%rsp)
  4016cc:	8b 44 24 08          	mov    0x8(%rsp),%eax
  4016d0:	69 c0 76 1d 00 00    	imul   $0x1d76,%eax,%eax
  4016d6:	89 44 24 08          	mov    %eax,0x8(%rsp)
  4016da:	8b 44 24 24          	mov    0x24(%rsp),%eax
  4016de:	69 c0 97 19 00 00    	imul   $0x1997,%eax,%eax
  4016e4:	89 44 24 24          	mov    %eax,0x24(%rsp)
  4016e8:	8b 44 24 04          	mov    0x4(%rsp),%eax
  4016ec:	69 c0 d8 fa 00 00    	imul   $0xfad8,%eax,%eax
  4016f2:	89 44 24 04          	mov    %eax,0x4(%rsp)
  4016f6:	8b 44 24 0c          	mov    0xc(%rsp),%eax
  4016fa:	69 c0 42 b8 00 00    	imul   $0xb842,%eax,%eax
  401700:	89 44 24 0c          	mov    %eax,0xc(%rsp)
  401704:	8b 44 24 08          	mov    0x8(%rsp),%eax
  401708:	69 c0 3d 83 00 00    	imul   $0x833d,%eax,%eax
  40170e:	89 44 24 08          	mov    %eax,0x8(%rsp)
  401712:	8b 44 24 24          	mov    0x24(%rsp),%eax
  401716:	69 c0 7e 37 00 00    	imul   $0x377e,%eax,%eax
  40171c:	89 44 24 24          	mov    %eax,0x24(%rsp)
  401720:	8b 44 24 18          	mov    0x18(%rsp),%eax
  401724:	69 c0 a3 90 00 00    	imul   $0x90a3,%eax,%eax
  40172a:	89 44 24 18          	mov    %eax,0x18(%rsp)
  40172e:	8b 44 24 14          	mov    0x14(%rsp),%eax
  401732:	69 c0 f7 a3 00 00    	imul   $0xa3f7,%eax,%eax
  401738:	89 44 24 14          	mov    %eax,0x14(%rsp)
  40173c:	8b 44 24 20          	mov    0x20(%rsp),%eax
  401740:	69 c0 5a 7b 00 00    	imul   $0x7b5a,%eax,%eax
  401746:	89 44 24 20          	mov    %eax,0x20(%rsp)
  40174a:	8b 44 24 0c          	mov    0xc(%rsp),%eax
  40174e:	69 c0 90 10 00 00    	imul   $0x1090,%eax,%eax
  401754:	89 44 24 0c          	mov    %eax,0xc(%rsp)
  401758:	8b 44 24 24          	mov    0x24(%rsp),%eax
  40175c:	69 c0 39 bb 00 00    	imul   $0xbb39,%eax,%eax
  401762:	89 44 24 24          	mov    %eax,0x24(%rsp)
  401766:	8b 44 24 20          	mov    0x20(%rsp),%eax
  40176a:	69 c0 8a 4a 00 00    	imul   $0x4a8a,%eax,%eax
  401770:	89 44 24 20          	mov    %eax,0x20(%rsp)
  401774:	8b 44 24 04          	mov    0x4(%rsp),%eax
  401778:	69 c0 9a 31 00 00    	imul   $0x319a,%eax,%eax
  40177e:	89 44 24 04          	mov    %eax,0x4(%rsp)
  401782:	8b 44 24 14          	mov    0x14(%rsp),%eax
  401786:	69 c0 63 d4 00 00    	imul   $0xd463,%eax,%eax
  40178c:	89 44 24 14          	mov    %eax,0x14(%rsp)
  401790:	8b 44 24 18          	mov    0x18(%rsp),%eax
  401794:	69 c0 b0 1e 00 00    	imul   $0x1eb0,%eax,%eax
  40179a:	89 44 24 18          	mov    %eax,0x18(%rsp)
  40179e:	8b 44 24 10          	mov    0x10(%rsp),%eax
  4017a2:	69 c0 d1 7b 00 00    	imul   $0x7bd1,%eax,%eax
  4017a8:	89 44 24 10          	mov    %eax,0x10(%rsp)
  4017ac:	8b 44 24 10          	mov    0x10(%rsp),%eax
  4017b0:	69 c0 7e 27 00 00    	imul   $0x277e,%eax,%eax
  4017b6:	89 44 24 10          	mov    %eax,0x10(%rsp)
  4017ba:	8b 44 24 10          	mov    0x10(%rsp),%eax
  4017be:	69 c0 a7 2e 00 00    	imul   $0x2ea7,%eax,%eax
  4017c4:	89 44 24 10          	mov    %eax,0x10(%rsp)
  4017c8:	8b 44 24 24          	mov    0x24(%rsp),%eax
  4017cc:	69 c0 31 18 00 00    	imul   $0x1831,%eax,%eax
  4017d2:	89 44 24 24          	mov    %eax,0x24(%rsp)
  4017d6:	8b 44 24 14          	mov    0x14(%rsp),%eax
  4017da:	69 c0 25 86 00 00    	imul   $0x8625,%eax,%eax
  4017e0:	89 44 24 14          	mov    %eax,0x14(%rsp)
  4017e4:	8b 44 24 1c          	mov    0x1c(%rsp),%eax
  4017e8:	69 c0 c9 20 00 00    	imul   $0x20c9,%eax,%eax
  4017ee:	89 44 24 1c          	mov    %eax,0x1c(%rsp)
  4017f2:	8b 04 24             	mov    (%rsp),%eax
  4017f5:	69 c0 02 fe 00 00    	imul   $0xfe02,%eax,%eax
  4017fb:	89 04 24             	mov    %eax,(%rsp)
  4017fe:	8b 44 24 0c          	mov    0xc(%rsp),%eax
  401802:	69 c0 9f 75 00 00    	imul   $0x759f,%eax,%eax
  401808:	89 44 24 0c          	mov    %eax,0xc(%rsp)
  40180c:	8b 44 24 24          	mov    0x24(%rsp),%eax
  401810:	69 c0 6a 18 00 00    	imul   $0x186a,%eax,%eax
  401816:	89 44 24 24          	mov    %eax,0x24(%rsp)
  40181a:	8b 44 24 20          	mov    0x20(%rsp),%eax
  40181e:	69 c0 cd bd 00 00    	imul   $0xbdcd,%eax,%eax
  401824:	89 44 24 20          	mov    %eax,0x20(%rsp)
  401828:	8b 44 24 10          	mov    0x10(%rsp),%eax
  40182c:	69 c0 e7 af 00 00    	imul   $0xafe7,%eax,%eax
  401832:	89 44 24 10          	mov    %eax,0x10(%rsp)
  401836:	8b 44 24 24          	mov    0x24(%rsp),%eax
  40183a:	69 c0 de f9 00 00    	imul   $0xf9de,%eax,%eax
  401840:	89 44 24 24          	mov    %eax,0x24(%rsp)
  401844:	8b 44 24 18          	mov    0x18(%rsp),%eax
  401848:	69 c0 3a 6f 00 00    	imul   $0x6f3a,%eax,%eax
  40184e:	89 44 24 18          	mov    %eax,0x18(%rsp)
  401852:	8b 44 24 08          	mov    0x8(%rsp),%eax
  401856:	69 c0 3c 8c 00 00    	imul   $0x8c3c,%eax,%eax
  40185c:	89 44 24 08          	mov    %eax,0x8(%rsp)
  401860:	8b 44 24 20          	mov    0x20(%rsp),%eax
  401864:	69 c0 d3 9e 00 00    	imul   $0x9ed3,%eax,%eax
  40186a:	89 44 24 20          	mov    %eax,0x20(%rsp)
  40186e:	8b 44 24 18          	mov    0x18(%rsp),%eax
  401872:	69 c0 16 a9 00 00    	imul   $0xa916,%eax,%eax
  401878:	89 44 24 18          	mov    %eax,0x18(%rsp)
  40187c:	8b 04 24             	mov    (%rsp),%eax
  40187f:	69 c0 12 e7 00 00    	imul   $0xe712,%eax,%eax
  401885:	89 04 24             	mov    %eax,(%rsp)
  401888:	8b 44 24 24          	mov    0x24(%rsp),%eax
  40188c:	69 c0 0c b0 00 00    	imul   $0xb00c,%eax,%eax
  401892:	89 44 24 24          	mov    %eax,0x24(%rsp)
  401896:	ba 00 00 00 00       	mov    $0x0,%edx
  40189b:	b8 00 00 00 00       	mov    $0x0,%eax
  4018a0:	eb 0a                	jmp    4018ac <scramble+0x56d>
  4018a2:	89 d1                	mov    %edx,%ecx
  4018a4:	8b 0c 8c             	mov    (%rsp,%rcx,4),%ecx
  4018a7:	01 c8                	add    %ecx,%eax
  4018a9:	83 c2 01             	add    $0x1,%edx
  4018ac:	83 fa 09             	cmp    $0x9,%edx
  4018af:	76 f1                	jbe    4018a2 <scramble+0x563>
  4018b1:	48 8b 74 24 28       	mov    0x28(%rsp),%rsi
  4018b6:	64 48 33 34 25 28 00 	xor    %fs:0x28,%rsi
  4018bd:	00 00 
  4018bf:	75 05                	jne    4018c6 <scramble+0x587>
  4018c1:	48 83 c4 38          	add    $0x38,%rsp
  4018c5:	c3                   	retq   
  4018c6:	e8 15 f4 ff ff       	callq  400ce0 <__stack_chk_fail@plt>

00000000004018cb <getbuf>:
  4018cb:	48 83 ec 18          	sub    $0x18,%rsp
  4018cf:	48 89 e7             	mov    %rsp,%rdi
  4018d2:	e8 7e 02 00 00       	callq  401b55 <Gets>
  4018d7:	b8 01 00 00 00       	mov    $0x1,%eax
  4018dc:	48 83 c4 18          	add    $0x18,%rsp
  4018e0:	c3                   	retq   

00000000004018e1 <touch1>:
  4018e1:	48 83 ec 08          	sub    $0x8,%rsp
  4018e5:	c7 05 0d 3c 20 00 01 	movl   $0x1,0x203c0d(%rip)        # 6054fc <vlevel>
  4018ec:	00 00 00 
  4018ef:	bf 4a 32 40 00       	mov    $0x40324a,%edi
  4018f4:	e8 c7 f3 ff ff       	callq  400cc0 <puts@plt>
  4018f9:	bf 01 00 00 00       	mov    $0x1,%edi
  4018fe:	e8 a7 04 00 00       	callq  401daa <validate>
  401903:	bf 00 00 00 00       	mov    $0x0,%edi
  401908:	e8 23 f5 ff ff       	callq  400e30 <exit@plt>

000000000040190d <touch2>:
  40190d:	48 83 ec 08          	sub    $0x8,%rsp
  401911:	89 fa                	mov    %edi,%edx
  401913:	c7 05 df 3b 20 00 02 	movl   $0x2,0x203bdf(%rip)        # 6054fc <vlevel>
  40191a:	00 00 00 
  40191d:	39 3d e1 3b 20 00    	cmp    %edi,0x203be1(%rip)        # 605504 <cookie>
  401923:	74 28                	je     40194d <touch2+0x40>
  401925:	be 98 32 40 00       	mov    $0x403298,%esi
  40192a:	bf 01 00 00 00       	mov    $0x1,%edi
  40192f:	b8 00 00 00 00       	mov    $0x0,%eax
  401934:	e8 a7 f4 ff ff       	callq  400de0 <__printf_chk@plt>
  401939:	bf 02 00 00 00       	mov    $0x2,%edi
  40193e:	e8 2c 05 00 00       	callq  401e6f <fail>
  401943:	bf 00 00 00 00       	mov    $0x0,%edi
  401948:	e8 e3 f4 ff ff       	callq  400e30 <exit@plt>
  40194d:	be 70 32 40 00       	mov    $0x403270,%esi
  401952:	bf 01 00 00 00       	mov    $0x1,%edi
  401957:	b8 00 00 00 00       	mov    $0x0,%eax
  40195c:	e8 7f f4 ff ff       	callq  400de0 <__printf_chk@plt>
  401961:	bf 02 00 00 00       	mov    $0x2,%edi
  401966:	e8 3f 04 00 00       	callq  401daa <validate>
  40196b:	eb d6                	jmp    401943 <touch2+0x36>

000000000040196d <hexmatch>:
  40196d:	41 54                	push   %r12
  40196f:	55                   	push   %rbp
  401970:	53                   	push   %rbx
  401971:	48 83 c4 80          	add    $0xffffffffffffff80,%rsp
  401975:	89 fd                	mov    %edi,%ebp
  401977:	48 89 f3             	mov    %rsi,%rbx
  40197a:	64 48 8b 04 25 28 00 	mov    %fs:0x28,%rax
  401981:	00 00 
  401983:	48 89 44 24 78       	mov    %rax,0x78(%rsp)
  401988:	31 c0                	xor    %eax,%eax
  40198a:	e8 11 f4 ff ff       	callq  400da0 <random@plt>
  40198f:	48 89 c1             	mov    %rax,%rcx
  401992:	48 ba 0b d7 a3 70 3d 	movabs $0xa3d70a3d70a3d70b,%rdx
  401999:	0a d7 a3 
  40199c:	48 f7 ea             	imul   %rdx
  40199f:	48 01 ca             	add    %rcx,%rdx
  4019a2:	48 c1 fa 06          	sar    $0x6,%rdx
  4019a6:	48 89 c8             	mov    %rcx,%rax
  4019a9:	48 c1 f8 3f          	sar    $0x3f,%rax
  4019ad:	48 29 c2             	sub    %rax,%rdx
  4019b0:	48 8d 04 92          	lea    (%rdx,%rdx,4),%rax
  4019b4:	48 8d 14 80          	lea    (%rax,%rax,4),%rdx
  4019b8:	48 8d 04 95 00 00 00 	lea    0x0(,%rdx,4),%rax
  4019bf:	00 
  4019c0:	48 29 c1             	sub    %rax,%rcx
  4019c3:	4c 8d 24 0c          	lea    (%rsp,%rcx,1),%r12
  4019c7:	41 89 e8             	mov    %ebp,%r8d
  4019ca:	b9 67 32 40 00       	mov    $0x403267,%ecx
  4019cf:	48 c7 c2 ff ff ff ff 	mov    $0xffffffffffffffff,%rdx
  4019d6:	be 01 00 00 00       	mov    $0x1,%esi
  4019db:	4c 89 e7             	mov    %r12,%rdi
  4019de:	b8 00 00 00 00       	mov    $0x0,%eax
  4019e3:	e8 78 f4 ff ff       	callq  400e60 <__sprintf_chk@plt>
  4019e8:	ba 09 00 00 00       	mov    $0x9,%edx
  4019ed:	4c 89 e6             	mov    %r12,%rsi
  4019f0:	48 89 df             	mov    %rbx,%rdi
  4019f3:	e8 a8 f2 ff ff       	callq  400ca0 <strncmp@plt>
  4019f8:	85 c0                	test   %eax,%eax
  4019fa:	0f 94 c0             	sete   %al
  4019fd:	48 8b 5c 24 78       	mov    0x78(%rsp),%rbx
  401a02:	64 48 33 1c 25 28 00 	xor    %fs:0x28,%rbx
  401a09:	00 00 
  401a0b:	75 0c                	jne    401a19 <hexmatch+0xac>
  401a0d:	0f b6 c0             	movzbl %al,%eax
  401a10:	48 83 ec 80          	sub    $0xffffffffffffff80,%rsp
  401a14:	5b                   	pop    %rbx
  401a15:	5d                   	pop    %rbp
  401a16:	41 5c                	pop    %r12
  401a18:	c3                   	retq   
  401a19:	e8 c2 f2 ff ff       	callq  400ce0 <__stack_chk_fail@plt>

0000000000401a1e <touch3>:
  401a1e:	53                   	push   %rbx
  401a1f:	48 89 fb             	mov    %rdi,%rbx
  401a22:	c7 05 d0 3a 20 00 03 	movl   $0x3,0x203ad0(%rip)        # 6054fc <vlevel>
  401a29:	00 00 00 
  401a2c:	48 89 fe             	mov    %rdi,%rsi
  401a2f:	8b 3d cf 3a 20 00    	mov    0x203acf(%rip),%edi        # 605504 <cookie>
  401a35:	e8 33 ff ff ff       	callq  40196d <hexmatch>
  401a3a:	85 c0                	test   %eax,%eax
  401a3c:	74 2b                	je     401a69 <touch3+0x4b>
  401a3e:	48 89 da             	mov    %rbx,%rdx
  401a41:	be c0 32 40 00       	mov    $0x4032c0,%esi
  401a46:	bf 01 00 00 00       	mov    $0x1,%edi
  401a4b:	b8 00 00 00 00       	mov    $0x0,%eax
  401a50:	e8 8b f3 ff ff       	callq  400de0 <__printf_chk@plt>
  401a55:	bf 03 00 00 00       	mov    $0x3,%edi
  401a5a:	e8 4b 03 00 00       	callq  401daa <validate>
  401a5f:	bf 00 00 00 00       	mov    $0x0,%edi
  401a64:	e8 c7 f3 ff ff       	callq  400e30 <exit@plt>
  401a69:	48 89 da             	mov    %rbx,%rdx
  401a6c:	be e8 32 40 00       	mov    $0x4032e8,%esi
  401a71:	bf 01 00 00 00       	mov    $0x1,%edi
  401a76:	b8 00 00 00 00       	mov    $0x0,%eax
  401a7b:	e8 60 f3 ff ff       	callq  400de0 <__printf_chk@plt>
  401a80:	bf 03 00 00 00       	mov    $0x3,%edi
  401a85:	e8 e5 03 00 00       	callq  401e6f <fail>
  401a8a:	eb d3                	jmp    401a5f <touch3+0x41>

0000000000401a8c <test>:
  401a8c:	48 83 ec 08          	sub    $0x8,%rsp
  401a90:	b8 00 00 00 00       	mov    $0x0,%eax
  401a95:	e8 31 fe ff ff       	callq  4018cb <getbuf>
  401a9a:	89 c2                	mov    %eax,%edx
  401a9c:	be 10 33 40 00       	mov    $0x403310,%esi
  401aa1:	bf 01 00 00 00       	mov    $0x1,%edi
  401aa6:	b8 00 00 00 00       	mov    $0x0,%eax
  401aab:	e8 30 f3 ff ff       	callq  400de0 <__printf_chk@plt>
  401ab0:	48 83 c4 08          	add    $0x8,%rsp
  401ab4:	c3                   	retq   

0000000000401ab5 <save_char>:
  401ab5:	8b 05 69 46 20 00    	mov    0x204669(%rip),%eax        # 606124 <gets_cnt>
  401abb:	3d ff 03 00 00       	cmp    $0x3ff,%eax
  401ac0:	7f 49                	jg     401b0b <save_char+0x56>
  401ac2:	89 f9                	mov    %edi,%ecx
  401ac4:	c0 e9 04             	shr    $0x4,%cl
  401ac7:	8d 14 40             	lea    (%rax,%rax,2),%edx
  401aca:	83 e1 0f             	and    $0xf,%ecx
  401acd:	0f b6 b1 30 36 40 00 	movzbl 0x403630(%rcx),%esi
  401ad4:	48 63 ca             	movslq %edx,%rcx
  401ad7:	40 88 b1 20 55 60 00 	mov    %sil,0x605520(%rcx)
  401ade:	8d 4a 01             	lea    0x1(%rdx),%ecx
  401ae1:	83 e7 0f             	and    $0xf,%edi
  401ae4:	0f b6 b7 30 36 40 00 	movzbl 0x403630(%rdi),%esi
  401aeb:	48 63 c9             	movslq %ecx,%rcx
  401aee:	40 88 b1 20 55 60 00 	mov    %sil,0x605520(%rcx)
  401af5:	83 c2 02             	add    $0x2,%edx
  401af8:	48 63 d2             	movslq %edx,%rdx
  401afb:	c6 82 20 55 60 00 20 	movb   $0x20,0x605520(%rdx)
  401b02:	83 c0 01             	add    $0x1,%eax
  401b05:	89 05 19 46 20 00    	mov    %eax,0x204619(%rip)        # 606124 <gets_cnt>
  401b0b:	f3 c3                	repz retq 

0000000000401b0d <save_term>:
  401b0d:	8b 05 11 46 20 00    	mov    0x204611(%rip),%eax        # 606124 <gets_cnt>
  401b13:	8d 04 40             	lea    (%rax,%rax,2),%eax
  401b16:	48 98                	cltq   
  401b18:	c6 80 20 55 60 00 00 	movb   $0x0,0x605520(%rax)
  401b1f:	c3                   	retq   

0000000000401b20 <check_fail>:
  401b20:	48 83 ec 08          	sub    $0x8,%rsp
  401b24:	0f be 15 fd 45 20 00 	movsbl 0x2045fd(%rip),%edx        # 606128 <target_prefix>
  401b2b:	41 b8 20 55 60 00    	mov    $0x605520,%r8d
  401b31:	8b 0d c1 39 20 00    	mov    0x2039c1(%rip),%ecx        # 6054f8 <check_level>
  401b37:	be 33 33 40 00       	mov    $0x403333,%esi
  401b3c:	bf 01 00 00 00       	mov    $0x1,%edi
  401b41:	b8 00 00 00 00       	mov    $0x0,%eax
  401b46:	e8 95 f2 ff ff       	callq  400de0 <__printf_chk@plt>
  401b4b:	bf 01 00 00 00       	mov    $0x1,%edi
  401b50:	e8 db f2 ff ff       	callq  400e30 <exit@plt>

0000000000401b55 <Gets>:
  401b55:	41 54                	push   %r12
  401b57:	55                   	push   %rbp
  401b58:	53                   	push   %rbx
  401b59:	49 89 fc             	mov    %rdi,%r12
  401b5c:	c7 05 be 45 20 00 00 	movl   $0x0,0x2045be(%rip)        # 606124 <gets_cnt>
  401b63:	00 00 00 
  401b66:	48 89 fb             	mov    %rdi,%rbx
  401b69:	eb 11                	jmp    401b7c <Gets+0x27>
  401b6b:	48 8d 6b 01          	lea    0x1(%rbx),%rbp
  401b6f:	88 03                	mov    %al,(%rbx)
  401b71:	0f b6 f8             	movzbl %al,%edi
  401b74:	e8 3c ff ff ff       	callq  401ab5 <save_char>
  401b79:	48 89 eb             	mov    %rbp,%rbx
  401b7c:	48 8b 3d 6d 39 20 00 	mov    0x20396d(%rip),%rdi        # 6054f0 <infile>
  401b83:	e8 28 f2 ff ff       	callq  400db0 <_IO_getc@plt>
  401b88:	83 f8 ff             	cmp    $0xffffffff,%eax
  401b8b:	74 05                	je     401b92 <Gets+0x3d>
  401b8d:	83 f8 0a             	cmp    $0xa,%eax
  401b90:	75 d9                	jne    401b6b <Gets+0x16>
  401b92:	c6 03 00             	movb   $0x0,(%rbx)
  401b95:	b8 00 00 00 00       	mov    $0x0,%eax
  401b9a:	e8 6e ff ff ff       	callq  401b0d <save_term>
  401b9f:	4c 89 e0             	mov    %r12,%rax
  401ba2:	5b                   	pop    %rbx
  401ba3:	5d                   	pop    %rbp
  401ba4:	41 5c                	pop    %r12
  401ba6:	c3                   	retq   

0000000000401ba7 <notify_server>:
  401ba7:	55                   	push   %rbp
  401ba8:	53                   	push   %rbx
  401ba9:	48 81 ec 18 40 00 00 	sub    $0x4018,%rsp
  401bb0:	64 48 8b 04 25 28 00 	mov    %fs:0x28,%rax
  401bb7:	00 00 
  401bb9:	48 89 84 24 08 40 00 	mov    %rax,0x4008(%rsp)
  401bc0:	00 
  401bc1:	31 c0                	xor    %eax,%eax
  401bc3:	83 3d 3e 39 20 00 00 	cmpl   $0x0,0x20393e(%rip)        # 605508 <is_checker>
  401bca:	0f 85 c9 00 00 00    	jne    401c99 <notify_server+0xf2>
  401bd0:	89 fb                	mov    %edi,%ebx
  401bd2:	8b 05 4c 45 20 00    	mov    0x20454c(%rip),%eax        # 606124 <gets_cnt>
  401bd8:	83 c0 64             	add    $0x64,%eax
  401bdb:	3d 00 20 00 00       	cmp    $0x2000,%eax
  401be0:	0f 8f d4 00 00 00    	jg     401cba <notify_server+0x113>
  401be6:	0f be 05 3b 45 20 00 	movsbl 0x20453b(%rip),%eax        # 606128 <target_prefix>
  401bed:	83 3d 94 38 20 00 00 	cmpl   $0x0,0x203894(%rip)        # 605488 <notify>
  401bf4:	0f 84 de 00 00 00    	je     401cd8 <notify_server+0x131>
  401bfa:	8b 15 00 39 20 00    	mov    0x203900(%rip),%edx        # 605500 <authkey>
  401c00:	85 db                	test   %ebx,%ebx
  401c02:	0f 84 da 00 00 00    	je     401ce2 <notify_server+0x13b>
  401c08:	bd 49 33 40 00       	mov    $0x403349,%ebp
  401c0d:	68 20 55 60 00       	pushq  $0x605520
  401c12:	56                   	push   %rsi
  401c13:	50                   	push   %rax
  401c14:	52                   	push   %rdx
  401c15:	49 89 e9             	mov    %rbp,%r9
  401c18:	44 8b 05 29 35 20 00 	mov    0x203529(%rip),%r8d        # 605148 <target_id>
  401c1f:	b9 53 33 40 00       	mov    $0x403353,%ecx
  401c24:	ba 00 20 00 00       	mov    $0x2000,%edx
  401c29:	be 01 00 00 00       	mov    $0x1,%esi
  401c2e:	48 8d 7c 24 20       	lea    0x20(%rsp),%rdi
  401c33:	b8 00 00 00 00       	mov    $0x0,%eax
  401c38:	e8 23 f2 ff ff       	callq  400e60 <__sprintf_chk@plt>
  401c3d:	48 83 c4 20          	add    $0x20,%rsp
  401c41:	83 3d 40 38 20 00 00 	cmpl   $0x0,0x203840(%rip)        # 605488 <notify>
  401c48:	0f 84 d3 00 00 00    	je     401d21 <notify_server+0x17a>
  401c4e:	85 db                	test   %ebx,%ebx
  401c50:	0f 84 bc 00 00 00    	je     401d12 <notify_server+0x16b>
  401c56:	4c 8d 8c 24 00 20 00 	lea    0x2000(%rsp),%r9
  401c5d:	00 
  401c5e:	41 b8 00 00 00 00    	mov    $0x0,%r8d
  401c64:	48 89 e1             	mov    %rsp,%rcx
  401c67:	48 8b 15 e2 34 20 00 	mov    0x2034e2(%rip),%rdx        # 605150 <lab>
  401c6e:	48 8b 35 e3 34 20 00 	mov    0x2034e3(%rip),%rsi        # 605158 <course>
  401c75:	48 8b 3d c4 34 20 00 	mov    0x2034c4(%rip),%rdi        # 605140 <user_id>
  401c7c:	e8 31 11 00 00       	callq  402db2 <driver_post>
  401c81:	85 c0                	test   %eax,%eax
  401c83:	78 67                	js     401cec <notify_server+0x145>
  401c85:	bf 98 34 40 00       	mov    $0x403498,%edi
  401c8a:	e8 31 f0 ff ff       	callq  400cc0 <puts@plt>
  401c8f:	bf 7b 33 40 00       	mov    $0x40337b,%edi
  401c94:	e8 27 f0 ff ff       	callq  400cc0 <puts@plt>
  401c99:	48 8b 84 24 08 40 00 	mov    0x4008(%rsp),%rax
  401ca0:	00 
  401ca1:	64 48 33 04 25 28 00 	xor    %fs:0x28,%rax
  401ca8:	00 00 
  401caa:	0f 85 f5 00 00 00    	jne    401da5 <notify_server+0x1fe>
  401cb0:	48 81 c4 18 40 00 00 	add    $0x4018,%rsp
  401cb7:	5b                   	pop    %rbx
  401cb8:	5d                   	pop    %rbp
  401cb9:	c3                   	retq   
  401cba:	be 68 34 40 00       	mov    $0x403468,%esi
  401cbf:	bf 01 00 00 00       	mov    $0x1,%edi
  401cc4:	b8 00 00 00 00       	mov    $0x0,%eax
  401cc9:	e8 12 f1 ff ff       	callq  400de0 <__printf_chk@plt>
  401cce:	bf 01 00 00 00       	mov    $0x1,%edi
  401cd3:	e8 58 f1 ff ff       	callq  400e30 <exit@plt>
  401cd8:	ba ff ff ff ff       	mov    $0xffffffff,%edx
  401cdd:	e9 1e ff ff ff       	jmpq   401c00 <notify_server+0x59>
  401ce2:	bd 4e 33 40 00       	mov    $0x40334e,%ebp
  401ce7:	e9 21 ff ff ff       	jmpq   401c0d <notify_server+0x66>
  401cec:	48 8d 94 24 00 20 00 	lea    0x2000(%rsp),%rdx
  401cf3:	00 
  401cf4:	be 6f 33 40 00       	mov    $0x40336f,%esi
  401cf9:	bf 01 00 00 00       	mov    $0x1,%edi
  401cfe:	b8 00 00 00 00       	mov    $0x0,%eax
  401d03:	e8 d8 f0 ff ff       	callq  400de0 <__printf_chk@plt>
  401d08:	bf 01 00 00 00       	mov    $0x1,%edi
  401d0d:	e8 1e f1 ff ff       	callq  400e30 <exit@plt>
  401d12:	bf 85 33 40 00       	mov    $0x403385,%edi
  401d17:	e8 a4 ef ff ff       	callq  400cc0 <puts@plt>
  401d1c:	e9 78 ff ff ff       	jmpq   401c99 <notify_server+0xf2>
  401d21:	48 89 ea             	mov    %rbp,%rdx
  401d24:	be d0 34 40 00       	mov    $0x4034d0,%esi
  401d29:	bf 01 00 00 00       	mov    $0x1,%edi
  401d2e:	b8 00 00 00 00       	mov    $0x0,%eax
  401d33:	e8 a8 f0 ff ff       	callq  400de0 <__printf_chk@plt>
  401d38:	48 8b 15 01 34 20 00 	mov    0x203401(%rip),%rdx        # 605140 <user_id>
  401d3f:	be 8c 33 40 00       	mov    $0x40338c,%esi
  401d44:	bf 01 00 00 00       	mov    $0x1,%edi
  401d49:	b8 00 00 00 00       	mov    $0x0,%eax
  401d4e:	e8 8d f0 ff ff       	callq  400de0 <__printf_chk@plt>
  401d53:	48 8b 15 fe 33 20 00 	mov    0x2033fe(%rip),%rdx        # 605158 <course>
  401d5a:	be 99 33 40 00       	mov    $0x403399,%esi
  401d5f:	bf 01 00 00 00       	mov    $0x1,%edi
  401d64:	b8 00 00 00 00       	mov    $0x0,%eax
  401d69:	e8 72 f0 ff ff       	callq  400de0 <__printf_chk@plt>
  401d6e:	48 8b 15 db 33 20 00 	mov    0x2033db(%rip),%rdx        # 605150 <lab>
  401d75:	be a5 33 40 00       	mov    $0x4033a5,%esi
  401d7a:	bf 01 00 00 00       	mov    $0x1,%edi
  401d7f:	b8 00 00 00 00       	mov    $0x0,%eax
  401d84:	e8 57 f0 ff ff       	callq  400de0 <__printf_chk@plt>
  401d89:	48 89 e2             	mov    %rsp,%rdx
  401d8c:	be ae 33 40 00       	mov    $0x4033ae,%esi
  401d91:	bf 01 00 00 00       	mov    $0x1,%edi
  401d96:	b8 00 00 00 00       	mov    $0x0,%eax
  401d9b:	e8 40 f0 ff ff       	callq  400de0 <__printf_chk@plt>
  401da0:	e9 f4 fe ff ff       	jmpq   401c99 <notify_server+0xf2>
  401da5:	e8 36 ef ff ff       	callq  400ce0 <__stack_chk_fail@plt>

0000000000401daa <validate>:
  401daa:	53                   	push   %rbx
  401dab:	89 fb                	mov    %edi,%ebx
  401dad:	83 3d 54 37 20 00 00 	cmpl   $0x0,0x203754(%rip)        # 605508 <is_checker>
  401db4:	74 6b                	je     401e21 <validate+0x77>
  401db6:	39 3d 40 37 20 00    	cmp    %edi,0x203740(%rip)        # 6054fc <vlevel>
  401dbc:	75 2f                	jne    401ded <validate+0x43>
  401dbe:	8b 15 34 37 20 00    	mov    0x203734(%rip),%edx        # 6054f8 <check_level>
  401dc4:	39 fa                	cmp    %edi,%edx
  401dc6:	75 39                	jne    401e01 <validate+0x57>
  401dc8:	0f be 15 59 43 20 00 	movsbl 0x204359(%rip),%edx        # 606128 <target_prefix>
  401dcf:	41 b8 20 55 60 00    	mov    $0x605520,%r8d
  401dd5:	89 f9                	mov    %edi,%ecx
  401dd7:	be d8 33 40 00       	mov    $0x4033d8,%esi
  401ddc:	bf 01 00 00 00       	mov    $0x1,%edi
  401de1:	b8 00 00 00 00       	mov    $0x0,%eax
  401de6:	e8 f5 ef ff ff       	callq  400de0 <__printf_chk@plt>
  401deb:	5b                   	pop    %rbx
  401dec:	c3                   	retq   
  401ded:	bf ba 33 40 00       	mov    $0x4033ba,%edi
  401df2:	e8 c9 ee ff ff       	callq  400cc0 <puts@plt>
  401df7:	b8 00 00 00 00       	mov    $0x0,%eax
  401dfc:	e8 1f fd ff ff       	callq  401b20 <check_fail>
  401e01:	89 f9                	mov    %edi,%ecx
  401e03:	be f8 34 40 00       	mov    $0x4034f8,%esi
  401e08:	bf 01 00 00 00       	mov    $0x1,%edi
  401e0d:	b8 00 00 00 00       	mov    $0x0,%eax
  401e12:	e8 c9 ef ff ff       	callq  400de0 <__printf_chk@plt>
  401e17:	b8 00 00 00 00       	mov    $0x0,%eax
  401e1c:	e8 ff fc ff ff       	callq  401b20 <check_fail>
  401e21:	39 3d d5 36 20 00    	cmp    %edi,0x2036d5(%rip)        # 6054fc <vlevel>
  401e27:	74 18                	je     401e41 <validate+0x97>
  401e29:	bf ba 33 40 00       	mov    $0x4033ba,%edi
  401e2e:	e8 8d ee ff ff       	callq  400cc0 <puts@plt>
  401e33:	89 de                	mov    %ebx,%esi
  401e35:	bf 00 00 00 00       	mov    $0x0,%edi
  401e3a:	e8 68 fd ff ff       	callq  401ba7 <notify_server>
  401e3f:	eb aa                	jmp    401deb <validate+0x41>
  401e41:	0f be 0d e0 42 20 00 	movsbl 0x2042e0(%rip),%ecx        # 606128 <target_prefix>
  401e48:	89 fa                	mov    %edi,%edx
  401e4a:	be 20 35 40 00       	mov    $0x403520,%esi
  401e4f:	bf 01 00 00 00       	mov    $0x1,%edi
  401e54:	b8 00 00 00 00       	mov    $0x0,%eax
  401e59:	e8 82 ef ff ff       	callq  400de0 <__printf_chk@plt>
  401e5e:	89 de                	mov    %ebx,%esi
  401e60:	bf 01 00 00 00       	mov    $0x1,%edi
  401e65:	e8 3d fd ff ff       	callq  401ba7 <notify_server>
  401e6a:	e9 7c ff ff ff       	jmpq   401deb <validate+0x41>

0000000000401e6f <fail>:
  401e6f:	48 83 ec 08          	sub    $0x8,%rsp
  401e73:	83 3d 8e 36 20 00 00 	cmpl   $0x0,0x20368e(%rip)        # 605508 <is_checker>
  401e7a:	75 11                	jne    401e8d <fail+0x1e>
  401e7c:	89 fe                	mov    %edi,%esi
  401e7e:	bf 00 00 00 00       	mov    $0x0,%edi
  401e83:	e8 1f fd ff ff       	callq  401ba7 <notify_server>
  401e88:	48 83 c4 08          	add    $0x8,%rsp
  401e8c:	c3                   	retq   
  401e8d:	b8 00 00 00 00       	mov    $0x0,%eax
  401e92:	e8 89 fc ff ff       	callq  401b20 <check_fail>

0000000000401e97 <bushandler>:
  401e97:	48 83 ec 08          	sub    $0x8,%rsp
  401e9b:	83 3d 66 36 20 00 00 	cmpl   $0x0,0x203666(%rip)        # 605508 <is_checker>
  401ea2:	74 14                	je     401eb8 <bushandler+0x21>
  401ea4:	bf ed 33 40 00       	mov    $0x4033ed,%edi
  401ea9:	e8 12 ee ff ff       	callq  400cc0 <puts@plt>
  401eae:	b8 00 00 00 00       	mov    $0x0,%eax
  401eb3:	e8 68 fc ff ff       	callq  401b20 <check_fail>
  401eb8:	bf 58 35 40 00       	mov    $0x403558,%edi
  401ebd:	e8 fe ed ff ff       	callq  400cc0 <puts@plt>
  401ec2:	bf f7 33 40 00       	mov    $0x4033f7,%edi
  401ec7:	e8 f4 ed ff ff       	callq  400cc0 <puts@plt>
  401ecc:	be 00 00 00 00       	mov    $0x0,%esi
  401ed1:	bf 00 00 00 00       	mov    $0x0,%edi
  401ed6:	e8 cc fc ff ff       	callq  401ba7 <notify_server>
  401edb:	bf 01 00 00 00       	mov    $0x1,%edi
  401ee0:	e8 4b ef ff ff       	callq  400e30 <exit@plt>

0000000000401ee5 <seghandler>:
  401ee5:	48 83 ec 08          	sub    $0x8,%rsp
  401ee9:	83 3d 18 36 20 00 00 	cmpl   $0x0,0x203618(%rip)        # 605508 <is_checker>
  401ef0:	74 14                	je     401f06 <seghandler+0x21>
  401ef2:	bf 0d 34 40 00       	mov    $0x40340d,%edi
  401ef7:	e8 c4 ed ff ff       	callq  400cc0 <puts@plt>
  401efc:	b8 00 00 00 00       	mov    $0x0,%eax
  401f01:	e8 1a fc ff ff       	callq  401b20 <check_fail>
  401f06:	bf 78 35 40 00       	mov    $0x403578,%edi
  401f0b:	e8 b0 ed ff ff       	callq  400cc0 <puts@plt>
  401f10:	bf f7 33 40 00       	mov    $0x4033f7,%edi
  401f15:	e8 a6 ed ff ff       	callq  400cc0 <puts@plt>
  401f1a:	be 00 00 00 00       	mov    $0x0,%esi
  401f1f:	bf 00 00 00 00       	mov    $0x0,%edi
  401f24:	e8 7e fc ff ff       	callq  401ba7 <notify_server>
  401f29:	bf 01 00 00 00       	mov    $0x1,%edi
  401f2e:	e8 fd ee ff ff       	callq  400e30 <exit@plt>

0000000000401f33 <illegalhandler>:
  401f33:	48 83 ec 08          	sub    $0x8,%rsp
  401f37:	83 3d ca 35 20 00 00 	cmpl   $0x0,0x2035ca(%rip)        # 605508 <is_checker>
  401f3e:	74 14                	je     401f54 <illegalhandler+0x21>
  401f40:	bf 20 34 40 00       	mov    $0x403420,%edi
  401f45:	e8 76 ed ff ff       	callq  400cc0 <puts@plt>
  401f4a:	b8 00 00 00 00       	mov    $0x0,%eax
  401f4f:	e8 cc fb ff ff       	callq  401b20 <check_fail>
  401f54:	bf a0 35 40 00       	mov    $0x4035a0,%edi
  401f59:	e8 62 ed ff ff       	callq  400cc0 <puts@plt>
  401f5e:	bf f7 33 40 00       	mov    $0x4033f7,%edi
  401f63:	e8 58 ed ff ff       	callq  400cc0 <puts@plt>
  401f68:	be 00 00 00 00       	mov    $0x0,%esi
  401f6d:	bf 00 00 00 00       	mov    $0x0,%edi
  401f72:	e8 30 fc ff ff       	callq  401ba7 <notify_server>
  401f77:	bf 01 00 00 00       	mov    $0x1,%edi
  401f7c:	e8 af ee ff ff       	callq  400e30 <exit@plt>

0000000000401f81 <sigalrmhandler>:
  401f81:	48 83 ec 08          	sub    $0x8,%rsp
  401f85:	83 3d 7c 35 20 00 00 	cmpl   $0x0,0x20357c(%rip)        # 605508 <is_checker>
  401f8c:	74 14                	je     401fa2 <sigalrmhandler+0x21>
  401f8e:	bf 34 34 40 00       	mov    $0x403434,%edi
  401f93:	e8 28 ed ff ff       	callq  400cc0 <puts@plt>
  401f98:	b8 00 00 00 00       	mov    $0x0,%eax
  401f9d:	e8 7e fb ff ff       	callq  401b20 <check_fail>
  401fa2:	ba 05 00 00 00       	mov    $0x5,%edx
  401fa7:	be d0 35 40 00       	mov    $0x4035d0,%esi
  401fac:	bf 01 00 00 00       	mov    $0x1,%edi
  401fb1:	b8 00 00 00 00       	mov    $0x0,%eax
  401fb6:	e8 25 ee ff ff       	callq  400de0 <__printf_chk@plt>
  401fbb:	be 00 00 00 00       	mov    $0x0,%esi
  401fc0:	bf 00 00 00 00       	mov    $0x0,%edi
  401fc5:	e8 dd fb ff ff       	callq  401ba7 <notify_server>
  401fca:	bf 01 00 00 00       	mov    $0x1,%edi
  401fcf:	e8 5c ee ff ff       	callq  400e30 <exit@plt>

0000000000401fd4 <launch>:
  401fd4:	55                   	push   %rbp
  401fd5:	48 89 e5             	mov    %rsp,%rbp
  401fd8:	48 83 ec 10          	sub    $0x10,%rsp
  401fdc:	48 89 fa             	mov    %rdi,%rdx
  401fdf:	64 48 8b 04 25 28 00 	mov    %fs:0x28,%rax
  401fe6:	00 00 
  401fe8:	48 89 45 f8          	mov    %rax,-0x8(%rbp)
  401fec:	31 c0                	xor    %eax,%eax
  401fee:	48 8d 47 1e          	lea    0x1e(%rdi),%rax
  401ff2:	48 83 e0 f0          	and    $0xfffffffffffffff0,%rax
  401ff6:	48 29 c4             	sub    %rax,%rsp
  401ff9:	48 8d 7c 24 0f       	lea    0xf(%rsp),%rdi
  401ffe:	48 83 e7 f0          	and    $0xfffffffffffffff0,%rdi
  402002:	be f4 00 00 00       	mov    $0xf4,%esi
  402007:	e8 f4 ec ff ff       	callq  400d00 <memset@plt>
  40200c:	48 8b 05 8d 34 20 00 	mov    0x20348d(%rip),%rax        # 6054a0 <stdin@@GLIBC_2.2.5>
  402013:	48 39 05 d6 34 20 00 	cmp    %rax,0x2034d6(%rip)        # 6054f0 <infile>
  40201a:	74 38                	je     402054 <launch+0x80>
  40201c:	c7 05 d6 34 20 00 00 	movl   $0x0,0x2034d6(%rip)        # 6054fc <vlevel>
  402023:	00 00 00 
  402026:	b8 00 00 00 00       	mov    $0x0,%eax
  40202b:	e8 5c fa ff ff       	callq  401a8c <test>
  402030:	83 3d d1 34 20 00 00 	cmpl   $0x0,0x2034d1(%rip)        # 605508 <is_checker>
  402037:	75 31                	jne    40206a <launch+0x96>
  402039:	bf 54 34 40 00       	mov    $0x403454,%edi
  40203e:	e8 7d ec ff ff       	callq  400cc0 <puts@plt>
  402043:	48 8b 45 f8          	mov    -0x8(%rbp),%rax
  402047:	64 48 33 04 25 28 00 	xor    %fs:0x28,%rax
  40204e:	00 00 
  402050:	75 2c                	jne    40207e <launch+0xaa>
  402052:	c9                   	leaveq 
  402053:	c3                   	retq   
  402054:	be 3c 34 40 00       	mov    $0x40343c,%esi
  402059:	bf 01 00 00 00       	mov    $0x1,%edi
  40205e:	b8 00 00 00 00       	mov    $0x0,%eax
  402063:	e8 78 ed ff ff       	callq  400de0 <__printf_chk@plt>
  402068:	eb b2                	jmp    40201c <launch+0x48>
  40206a:	bf 49 34 40 00       	mov    $0x403449,%edi
  40206f:	e8 4c ec ff ff       	callq  400cc0 <puts@plt>
  402074:	b8 00 00 00 00       	mov    $0x0,%eax
  402079:	e8 a2 fa ff ff       	callq  401b20 <check_fail>
  40207e:	e8 5d ec ff ff       	callq  400ce0 <__stack_chk_fail@plt>

0000000000402083 <stable_launch>:
  402083:	53                   	push   %rbx
  402084:	48 89 3d 5d 34 20 00 	mov    %rdi,0x20345d(%rip)        # 6054e8 <global_offset>
  40208b:	41 b9 00 00 00 00    	mov    $0x0,%r9d
  402091:	41 b8 00 00 00 00    	mov    $0x0,%r8d
  402097:	b9 32 01 00 00       	mov    $0x132,%ecx
  40209c:	ba 07 00 00 00       	mov    $0x7,%edx
  4020a1:	be 00 00 10 00       	mov    $0x100000,%esi
  4020a6:	bf 00 60 58 55       	mov    $0x55586000,%edi
  4020ab:	e8 40 ec ff ff       	callq  400cf0 <mmap@plt>
  4020b0:	48 89 c3             	mov    %rax,%rbx
  4020b3:	48 3d 00 60 58 55    	cmp    $0x55586000,%rax
  4020b9:	75 43                	jne    4020fe <stable_launch+0x7b>
  4020bb:	48 8d 90 f8 ff 0f 00 	lea    0xffff8(%rax),%rdx
  4020c2:	48 89 15 67 40 20 00 	mov    %rdx,0x204067(%rip)        # 606130 <stack_top>
  4020c9:	48 89 e0             	mov    %rsp,%rax
  4020cc:	48 89 d4             	mov    %rdx,%rsp
  4020cf:	48 89 c2             	mov    %rax,%rdx
  4020d2:	48 89 15 07 34 20 00 	mov    %rdx,0x203407(%rip)        # 6054e0 <global_save_stack>
  4020d9:	48 8b 3d 08 34 20 00 	mov    0x203408(%rip),%rdi        # 6054e8 <global_offset>
  4020e0:	e8 ef fe ff ff       	callq  401fd4 <launch>
  4020e5:	48 8b 05 f4 33 20 00 	mov    0x2033f4(%rip),%rax        # 6054e0 <global_save_stack>
  4020ec:	48 89 c4             	mov    %rax,%rsp
  4020ef:	be 00 00 10 00       	mov    $0x100000,%esi
  4020f4:	48 89 df             	mov    %rbx,%rdi
  4020f7:	e8 d4 ec ff ff       	callq  400dd0 <munmap@plt>
  4020fc:	5b                   	pop    %rbx
  4020fd:	c3                   	retq   
  4020fe:	be 00 00 10 00       	mov    $0x100000,%esi
  402103:	48 89 c7             	mov    %rax,%rdi
  402106:	e8 c5 ec ff ff       	callq  400dd0 <munmap@plt>
  40210b:	b9 00 60 58 55       	mov    $0x55586000,%ecx
  402110:	ba 08 36 40 00       	mov    $0x403608,%edx
  402115:	be 01 00 00 00       	mov    $0x1,%esi
  40211a:	48 8b 3d 9f 33 20 00 	mov    0x20339f(%rip),%rdi        # 6054c0 <stderr@@GLIBC_2.2.5>
  402121:	b8 00 00 00 00       	mov    $0x0,%eax
  402126:	e8 25 ed ff ff       	callq  400e50 <__fprintf_chk@plt>
  40212b:	bf 01 00 00 00       	mov    $0x1,%edi
  402130:	e8 fb ec ff ff       	callq  400e30 <exit@plt>

0000000000402135 <rio_readinitb>:
  402135:	89 37                	mov    %esi,(%rdi)
  402137:	c7 47 04 00 00 00 00 	movl   $0x0,0x4(%rdi)
  40213e:	48 8d 47 10          	lea    0x10(%rdi),%rax
  402142:	48 89 47 08          	mov    %rax,0x8(%rdi)
  402146:	c3                   	retq   

0000000000402147 <sigalrm_handler>:
  402147:	48 83 ec 08          	sub    $0x8,%rsp
  40214b:	b9 00 00 00 00       	mov    $0x0,%ecx
  402150:	ba 40 36 40 00       	mov    $0x403640,%edx
  402155:	be 01 00 00 00       	mov    $0x1,%esi
  40215a:	48 8b 3d 5f 33 20 00 	mov    0x20335f(%rip),%rdi        # 6054c0 <stderr@@GLIBC_2.2.5>
  402161:	b8 00 00 00 00       	mov    $0x0,%eax
  402166:	e8 e5 ec ff ff       	callq  400e50 <__fprintf_chk@plt>
  40216b:	bf 01 00 00 00       	mov    $0x1,%edi
  402170:	e8 bb ec ff ff       	callq  400e30 <exit@plt>

0000000000402175 <rio_writen>:
  402175:	41 55                	push   %r13
  402177:	41 54                	push   %r12
  402179:	55                   	push   %rbp
  40217a:	53                   	push   %rbx
  40217b:	48 83 ec 08          	sub    $0x8,%rsp
  40217f:	41 89 fc             	mov    %edi,%r12d
  402182:	48 89 f5             	mov    %rsi,%rbp
  402185:	49 89 d5             	mov    %rdx,%r13
  402188:	48 89 d3             	mov    %rdx,%rbx
  40218b:	eb 06                	jmp    402193 <rio_writen+0x1e>
  40218d:	48 29 c3             	sub    %rax,%rbx
  402190:	48 01 c5             	add    %rax,%rbp
  402193:	48 85 db             	test   %rbx,%rbx
  402196:	74 24                	je     4021bc <rio_writen+0x47>
  402198:	48 89 da             	mov    %rbx,%rdx
  40219b:	48 89 ee             	mov    %rbp,%rsi
  40219e:	44 89 e7             	mov    %r12d,%edi
  4021a1:	e8 2a eb ff ff       	callq  400cd0 <write@plt>
  4021a6:	48 85 c0             	test   %rax,%rax
  4021a9:	7f e2                	jg     40218d <rio_writen+0x18>
  4021ab:	e8 d0 ea ff ff       	callq  400c80 <__errno_location@plt>
  4021b0:	83 38 04             	cmpl   $0x4,(%rax)
  4021b3:	75 15                	jne    4021ca <rio_writen+0x55>
  4021b5:	b8 00 00 00 00       	mov    $0x0,%eax
  4021ba:	eb d1                	jmp    40218d <rio_writen+0x18>
  4021bc:	4c 89 e8             	mov    %r13,%rax
  4021bf:	48 83 c4 08          	add    $0x8,%rsp
  4021c3:	5b                   	pop    %rbx
  4021c4:	5d                   	pop    %rbp
  4021c5:	41 5c                	pop    %r12
  4021c7:	41 5d                	pop    %r13
  4021c9:	c3                   	retq   
  4021ca:	48 c7 c0 ff ff ff ff 	mov    $0xffffffffffffffff,%rax
  4021d1:	eb ec                	jmp    4021bf <rio_writen+0x4a>

00000000004021d3 <rio_read>:
  4021d3:	41 55                	push   %r13
  4021d5:	41 54                	push   %r12
  4021d7:	55                   	push   %rbp
  4021d8:	53                   	push   %rbx
  4021d9:	48 83 ec 08          	sub    $0x8,%rsp
  4021dd:	48 89 fb             	mov    %rdi,%rbx
  4021e0:	49 89 f5             	mov    %rsi,%r13
  4021e3:	49 89 d4             	mov    %rdx,%r12
  4021e6:	eb 0a                	jmp    4021f2 <rio_read+0x1f>
  4021e8:	e8 93 ea ff ff       	callq  400c80 <__errno_location@plt>
  4021ed:	83 38 04             	cmpl   $0x4,(%rax)
  4021f0:	75 5c                	jne    40224e <rio_read+0x7b>
  4021f2:	8b 6b 04             	mov    0x4(%rbx),%ebp
  4021f5:	85 ed                	test   %ebp,%ebp
  4021f7:	7f 24                	jg     40221d <rio_read+0x4a>
  4021f9:	48 8d 6b 10          	lea    0x10(%rbx),%rbp
  4021fd:	8b 3b                	mov    (%rbx),%edi
  4021ff:	ba 00 20 00 00       	mov    $0x2000,%edx
  402204:	48 89 ee             	mov    %rbp,%rsi
  402207:	e8 24 eb ff ff       	callq  400d30 <read@plt>
  40220c:	89 43 04             	mov    %eax,0x4(%rbx)
  40220f:	85 c0                	test   %eax,%eax
  402211:	78 d5                	js     4021e8 <rio_read+0x15>
  402213:	85 c0                	test   %eax,%eax
  402215:	74 40                	je     402257 <rio_read+0x84>
  402217:	48 89 6b 08          	mov    %rbp,0x8(%rbx)
  40221b:	eb d5                	jmp    4021f2 <rio_read+0x1f>
  40221d:	89 e8                	mov    %ebp,%eax
  40221f:	4c 39 e0             	cmp    %r12,%rax
  402222:	72 03                	jb     402227 <rio_read+0x54>
  402224:	44 89 e5             	mov    %r12d,%ebp
  402227:	4c 63 e5             	movslq %ebp,%r12
  40222a:	48 8b 73 08          	mov    0x8(%rbx),%rsi
  40222e:	4c 89 e2             	mov    %r12,%rdx
  402231:	4c 89 ef             	mov    %r13,%rdi
  402234:	e8 47 eb ff ff       	callq  400d80 <memcpy@plt>
  402239:	4c 01 63 08          	add    %r12,0x8(%rbx)
  40223d:	29 6b 04             	sub    %ebp,0x4(%rbx)
  402240:	4c 89 e0             	mov    %r12,%rax
  402243:	48 83 c4 08          	add    $0x8,%rsp
  402247:	5b                   	pop    %rbx
  402248:	5d                   	pop    %rbp
  402249:	41 5c                	pop    %r12
  40224b:	41 5d                	pop    %r13
  40224d:	c3                   	retq   
  40224e:	48 c7 c0 ff ff ff ff 	mov    $0xffffffffffffffff,%rax
  402255:	eb ec                	jmp    402243 <rio_read+0x70>
  402257:	b8 00 00 00 00       	mov    $0x0,%eax
  40225c:	eb e5                	jmp    402243 <rio_read+0x70>

000000000040225e <rio_readlineb>:
  40225e:	41 55                	push   %r13
  402260:	41 54                	push   %r12
  402262:	55                   	push   %rbp
  402263:	53                   	push   %rbx
  402264:	48 83 ec 18          	sub    $0x18,%rsp
  402268:	49 89 fd             	mov    %rdi,%r13
  40226b:	48 89 f5             	mov    %rsi,%rbp
  40226e:	49 89 d4             	mov    %rdx,%r12
  402271:	64 48 8b 04 25 28 00 	mov    %fs:0x28,%rax
  402278:	00 00 
  40227a:	48 89 44 24 08       	mov    %rax,0x8(%rsp)
  40227f:	31 c0                	xor    %eax,%eax
  402281:	bb 01 00 00 00       	mov    $0x1,%ebx
  402286:	4c 39 e3             	cmp    %r12,%rbx
  402289:	73 47                	jae    4022d2 <rio_readlineb+0x74>
  40228b:	ba 01 00 00 00       	mov    $0x1,%edx
  402290:	48 8d 74 24 07       	lea    0x7(%rsp),%rsi
  402295:	4c 89 ef             	mov    %r13,%rdi
  402298:	e8 36 ff ff ff       	callq  4021d3 <rio_read>
  40229d:	83 f8 01             	cmp    $0x1,%eax
  4022a0:	75 1c                	jne    4022be <rio_readlineb+0x60>
  4022a2:	48 8d 45 01          	lea    0x1(%rbp),%rax
  4022a6:	0f b6 54 24 07       	movzbl 0x7(%rsp),%edx
  4022ab:	88 55 00             	mov    %dl,0x0(%rbp)
  4022ae:	80 7c 24 07 0a       	cmpb   $0xa,0x7(%rsp)
  4022b3:	74 1a                	je     4022cf <rio_readlineb+0x71>
  4022b5:	48 83 c3 01          	add    $0x1,%rbx
  4022b9:	48 89 c5             	mov    %rax,%rbp
  4022bc:	eb c8                	jmp    402286 <rio_readlineb+0x28>
  4022be:	85 c0                	test   %eax,%eax
  4022c0:	75 32                	jne    4022f4 <rio_readlineb+0x96>
  4022c2:	48 83 fb 01          	cmp    $0x1,%rbx
  4022c6:	75 0a                	jne    4022d2 <rio_readlineb+0x74>
  4022c8:	b8 00 00 00 00       	mov    $0x0,%eax
  4022cd:	eb 0a                	jmp    4022d9 <rio_readlineb+0x7b>
  4022cf:	48 89 c5             	mov    %rax,%rbp
  4022d2:	c6 45 00 00          	movb   $0x0,0x0(%rbp)
  4022d6:	48 89 d8             	mov    %rbx,%rax
  4022d9:	48 8b 4c 24 08       	mov    0x8(%rsp),%rcx
  4022de:	64 48 33 0c 25 28 00 	xor    %fs:0x28,%rcx
  4022e5:	00 00 
  4022e7:	75 14                	jne    4022fd <rio_readlineb+0x9f>
  4022e9:	48 83 c4 18          	add    $0x18,%rsp
  4022ed:	5b                   	pop    %rbx
  4022ee:	5d                   	pop    %rbp
  4022ef:	41 5c                	pop    %r12
  4022f1:	41 5d                	pop    %r13
  4022f3:	c3                   	retq   
  4022f4:	48 c7 c0 ff ff ff ff 	mov    $0xffffffffffffffff,%rax
  4022fb:	eb dc                	jmp    4022d9 <rio_readlineb+0x7b>
  4022fd:	e8 de e9 ff ff       	callq  400ce0 <__stack_chk_fail@plt>

0000000000402302 <urlencode>:
  402302:	41 54                	push   %r12
  402304:	55                   	push   %rbp
  402305:	53                   	push   %rbx
  402306:	48 83 ec 10          	sub    $0x10,%rsp
  40230a:	48 89 fb             	mov    %rdi,%rbx
  40230d:	48 89 f5             	mov    %rsi,%rbp
  402310:	64 48 8b 04 25 28 00 	mov    %fs:0x28,%rax
  402317:	00 00 
  402319:	48 89 44 24 08       	mov    %rax,0x8(%rsp)
  40231e:	31 c0                	xor    %eax,%eax
  402320:	48 c7 c1 ff ff ff ff 	mov    $0xffffffffffffffff,%rcx
  402327:	f2 ae                	repnz scas %es:(%rdi),%al
  402329:	48 89 ce             	mov    %rcx,%rsi
  40232c:	48 f7 d6             	not    %rsi
  40232f:	8d 46 ff             	lea    -0x1(%rsi),%eax
  402332:	eb 0f                	jmp    402343 <urlencode+0x41>
  402334:	44 88 45 00          	mov    %r8b,0x0(%rbp)
  402338:	48 8d 6d 01          	lea    0x1(%rbp),%rbp
  40233c:	48 83 c3 01          	add    $0x1,%rbx
  402340:	44 89 e0             	mov    %r12d,%eax
  402343:	44 8d 60 ff          	lea    -0x1(%rax),%r12d
  402347:	85 c0                	test   %eax,%eax
  402349:	0f 84 a6 00 00 00    	je     4023f5 <urlencode+0xf3>
  40234f:	44 0f b6 03          	movzbl (%rbx),%r8d
  402353:	41 80 f8 2a          	cmp    $0x2a,%r8b
  402357:	0f 94 c2             	sete   %dl
  40235a:	41 80 f8 2d          	cmp    $0x2d,%r8b
  40235e:	0f 94 c0             	sete   %al
  402361:	08 c2                	or     %al,%dl
  402363:	75 cf                	jne    402334 <urlencode+0x32>
  402365:	41 80 f8 2e          	cmp    $0x2e,%r8b
  402369:	74 c9                	je     402334 <urlencode+0x32>
  40236b:	41 80 f8 5f          	cmp    $0x5f,%r8b
  40236f:	74 c3                	je     402334 <urlencode+0x32>
  402371:	41 8d 40 d0          	lea    -0x30(%r8),%eax
  402375:	3c 09                	cmp    $0x9,%al
  402377:	76 bb                	jbe    402334 <urlencode+0x32>
  402379:	41 8d 40 bf          	lea    -0x41(%r8),%eax
  40237d:	3c 19                	cmp    $0x19,%al
  40237f:	76 b3                	jbe    402334 <urlencode+0x32>
  402381:	41 8d 40 9f          	lea    -0x61(%r8),%eax
  402385:	3c 19                	cmp    $0x19,%al
  402387:	76 ab                	jbe    402334 <urlencode+0x32>
  402389:	41 80 f8 20          	cmp    $0x20,%r8b
  40238d:	74 54                	je     4023e3 <urlencode+0xe1>
  40238f:	41 8d 40 e0          	lea    -0x20(%r8),%eax
  402393:	3c 5f                	cmp    $0x5f,%al
  402395:	0f 96 c2             	setbe  %dl
  402398:	41 80 f8 09          	cmp    $0x9,%r8b
  40239c:	0f 94 c0             	sete   %al
  40239f:	08 c2                	or     %al,%dl
  4023a1:	74 4d                	je     4023f0 <urlencode+0xee>
  4023a3:	45 0f b6 c0          	movzbl %r8b,%r8d
  4023a7:	b9 d8 36 40 00       	mov    $0x4036d8,%ecx
  4023ac:	ba 08 00 00 00       	mov    $0x8,%edx
  4023b1:	be 01 00 00 00       	mov    $0x1,%esi
  4023b6:	48 89 e7             	mov    %rsp,%rdi
  4023b9:	b8 00 00 00 00       	mov    $0x0,%eax
  4023be:	e8 9d ea ff ff       	callq  400e60 <__sprintf_chk@plt>
  4023c3:	0f b6 04 24          	movzbl (%rsp),%eax
  4023c7:	88 45 00             	mov    %al,0x0(%rbp)
  4023ca:	0f b6 44 24 01       	movzbl 0x1(%rsp),%eax
  4023cf:	88 45 01             	mov    %al,0x1(%rbp)
  4023d2:	0f b6 44 24 02       	movzbl 0x2(%rsp),%eax
  4023d7:	88 45 02             	mov    %al,0x2(%rbp)
  4023da:	48 8d 6d 03          	lea    0x3(%rbp),%rbp
  4023de:	e9 59 ff ff ff       	jmpq   40233c <urlencode+0x3a>
  4023e3:	c6 45 00 2b          	movb   $0x2b,0x0(%rbp)
  4023e7:	48 8d 6d 01          	lea    0x1(%rbp),%rbp
  4023eb:	e9 4c ff ff ff       	jmpq   40233c <urlencode+0x3a>
  4023f0:	b8 ff ff ff ff       	mov    $0xffffffff,%eax
  4023f5:	48 8b 74 24 08       	mov    0x8(%rsp),%rsi
  4023fa:	64 48 33 34 25 28 00 	xor    %fs:0x28,%rsi
  402401:	00 00 
  402403:	75 09                	jne    40240e <urlencode+0x10c>
  402405:	48 83 c4 10          	add    $0x10,%rsp
  402409:	5b                   	pop    %rbx
  40240a:	5d                   	pop    %rbp
  40240b:	41 5c                	pop    %r12
  40240d:	c3                   	retq   
  40240e:	e8 cd e8 ff ff       	callq  400ce0 <__stack_chk_fail@plt>

0000000000402413 <submitr>:
  402413:	41 57                	push   %r15
  402415:	41 56                	push   %r14
  402417:	41 55                	push   %r13
  402419:	41 54                	push   %r12
  40241b:	55                   	push   %rbp
  40241c:	53                   	push   %rbx
  40241d:	48 81 ec 58 a0 00 00 	sub    $0xa058,%rsp
  402424:	49 89 fc             	mov    %rdi,%r12
  402427:	89 74 24 04          	mov    %esi,0x4(%rsp)
  40242b:	49 89 d7             	mov    %rdx,%r15
  40242e:	49 89 ce             	mov    %rcx,%r14
  402431:	4c 89 44 24 08       	mov    %r8,0x8(%rsp)
  402436:	4d 89 cd             	mov    %r9,%r13
  402439:	48 8b ac 24 90 a0 00 	mov    0xa090(%rsp),%rbp
  402440:	00 
  402441:	64 48 8b 04 25 28 00 	mov    %fs:0x28,%rax
  402448:	00 00 
  40244a:	48 89 84 24 48 a0 00 	mov    %rax,0xa048(%rsp)
  402451:	00 
  402452:	31 c0                	xor    %eax,%eax
  402454:	c7 44 24 1c 00 00 00 	movl   $0x0,0x1c(%rsp)
  40245b:	00 
  40245c:	ba 00 00 00 00       	mov    $0x0,%edx
  402461:	be 01 00 00 00       	mov    $0x1,%esi
  402466:	bf 02 00 00 00       	mov    $0x2,%edi
  40246b:	e8 00 ea ff ff       	callq  400e70 <socket@plt>
  402470:	85 c0                	test   %eax,%eax
  402472:	0f 88 9b 02 00 00    	js     402713 <submitr+0x300>
  402478:	89 c3                	mov    %eax,%ebx
  40247a:	4c 89 e7             	mov    %r12,%rdi
  40247d:	e8 ce e8 ff ff       	callq  400d50 <gethostbyname@plt>
  402482:	48 85 c0             	test   %rax,%rax
  402485:	0f 84 d4 02 00 00    	je     40275f <submitr+0x34c>
  40248b:	48 c7 44 24 22 00 00 	movq   $0x0,0x22(%rsp)
  402492:	00 00 
  402494:	c7 44 24 2a 00 00 00 	movl   $0x0,0x2a(%rsp)
  40249b:	00 
  40249c:	66 c7 44 24 2e 00 00 	movw   $0x0,0x2e(%rsp)
  4024a3:	66 c7 44 24 20 02 00 	movw   $0x2,0x20(%rsp)
  4024aa:	48 63 50 14          	movslq 0x14(%rax),%rdx
  4024ae:	48 8b 40 18          	mov    0x18(%rax),%rax
  4024b2:	48 8b 30             	mov    (%rax),%rsi
  4024b5:	48 8d 7c 24 24       	lea    0x24(%rsp),%rdi
  4024ba:	b9 0c 00 00 00       	mov    $0xc,%ecx
  4024bf:	e8 9c e8 ff ff       	callq  400d60 <__memmove_chk@plt>
  4024c4:	0f b7 44 24 04       	movzwl 0x4(%rsp),%eax
  4024c9:	66 c1 c8 08          	ror    $0x8,%ax
  4024cd:	66 89 44 24 22       	mov    %ax,0x22(%rsp)
  4024d2:	ba 10 00 00 00       	mov    $0x10,%edx
  4024d7:	48 8d 74 24 20       	lea    0x20(%rsp),%rsi
  4024dc:	89 df                	mov    %ebx,%edi
  4024de:	e8 5d e9 ff ff       	callq  400e40 <connect@plt>
  4024e3:	85 c0                	test   %eax,%eax
  4024e5:	0f 88 dc 02 00 00    	js     4027c7 <submitr+0x3b4>
  4024eb:	48 c7 c6 ff ff ff ff 	mov    $0xffffffffffffffff,%rsi
  4024f2:	b8 00 00 00 00       	mov    $0x0,%eax
  4024f7:	48 89 f1             	mov    %rsi,%rcx
  4024fa:	4c 89 ef             	mov    %r13,%rdi
  4024fd:	f2 ae                	repnz scas %es:(%rdi),%al
  4024ff:	48 89 ca             	mov    %rcx,%rdx
  402502:	48 f7 d2             	not    %rdx
  402505:	48 89 f1             	mov    %rsi,%rcx
  402508:	4c 89 ff             	mov    %r15,%rdi
  40250b:	f2 ae                	repnz scas %es:(%rdi),%al
  40250d:	48 f7 d1             	not    %rcx
  402510:	49 89 c8             	mov    %rcx,%r8
  402513:	48 89 f1             	mov    %rsi,%rcx
  402516:	4c 89 f7             	mov    %r14,%rdi
  402519:	f2 ae                	repnz scas %es:(%rdi),%al
  40251b:	48 f7 d1             	not    %rcx
  40251e:	4d 8d 44 08 fe       	lea    -0x2(%r8,%rcx,1),%r8
  402523:	48 89 f1             	mov    %rsi,%rcx
  402526:	48 8b 7c 24 08       	mov    0x8(%rsp),%rdi
  40252b:	f2 ae                	repnz scas %es:(%rdi),%al
  40252d:	48 89 c8             	mov    %rcx,%rax
  402530:	48 f7 d0             	not    %rax
  402533:	49 8d 4c 00 ff       	lea    -0x1(%r8,%rax,1),%rcx
  402538:	48 8d 44 52 fd       	lea    -0x3(%rdx,%rdx,2),%rax
  40253d:	48 8d 84 01 80 00 00 	lea    0x80(%rcx,%rax,1),%rax
  402544:	00 
  402545:	48 3d 00 20 00 00    	cmp    $0x2000,%rax
  40254b:	0f 87 d0 02 00 00    	ja     402821 <submitr+0x40e>
  402551:	48 8d b4 24 40 40 00 	lea    0x4040(%rsp),%rsi
  402558:	00 
  402559:	b9 00 04 00 00       	mov    $0x400,%ecx
  40255e:	b8 00 00 00 00       	mov    $0x0,%eax
  402563:	48 89 f7             	mov    %rsi,%rdi
  402566:	f3 48 ab             	rep stos %rax,%es:(%rdi)
  402569:	4c 89 ef             	mov    %r13,%rdi
  40256c:	e8 91 fd ff ff       	callq  402302 <urlencode>
  402571:	85 c0                	test   %eax,%eax
  402573:	0f 88 1b 03 00 00    	js     402894 <submitr+0x481>
  402579:	4c 8d ac 24 40 20 00 	lea    0x2040(%rsp),%r13
  402580:	00 
  402581:	41 54                	push   %r12
  402583:	48 8d 84 24 48 40 00 	lea    0x4048(%rsp),%rax
  40258a:	00 
  40258b:	50                   	push   %rax
  40258c:	4d 89 f9             	mov    %r15,%r9
  40258f:	4d 89 f0             	mov    %r14,%r8
  402592:	b9 68 36 40 00       	mov    $0x403668,%ecx
  402597:	ba 00 20 00 00       	mov    $0x2000,%edx
  40259c:	be 01 00 00 00       	mov    $0x1,%esi
  4025a1:	4c 89 ef             	mov    %r13,%rdi
  4025a4:	b8 00 00 00 00       	mov    $0x0,%eax
  4025a9:	e8 b2 e8 ff ff       	callq  400e60 <__sprintf_chk@plt>
  4025ae:	48 c7 c1 ff ff ff ff 	mov    $0xffffffffffffffff,%rcx
  4025b5:	b8 00 00 00 00       	mov    $0x0,%eax
  4025ba:	4c 89 ef             	mov    %r13,%rdi
  4025bd:	f2 ae                	repnz scas %es:(%rdi),%al
  4025bf:	48 89 ca             	mov    %rcx,%rdx
  4025c2:	48 f7 d2             	not    %rdx
  4025c5:	48 8d 52 ff          	lea    -0x1(%rdx),%rdx
  4025c9:	4c 89 ee             	mov    %r13,%rsi
  4025cc:	89 df                	mov    %ebx,%edi
  4025ce:	e8 a2 fb ff ff       	callq  402175 <rio_writen>
  4025d3:	48 83 c4 10          	add    $0x10,%rsp
  4025d7:	48 85 c0             	test   %rax,%rax
  4025da:	0f 88 3f 03 00 00    	js     40291f <submitr+0x50c>
  4025e0:	89 de                	mov    %ebx,%esi
  4025e2:	48 8d 7c 24 30       	lea    0x30(%rsp),%rdi
  4025e7:	e8 49 fb ff ff       	callq  402135 <rio_readinitb>
  4025ec:	ba 00 20 00 00       	mov    $0x2000,%edx
  4025f1:	48 8d b4 24 40 20 00 	lea    0x2040(%rsp),%rsi
  4025f8:	00 
  4025f9:	48 8d 7c 24 30       	lea    0x30(%rsp),%rdi
  4025fe:	e8 5b fc ff ff       	callq  40225e <rio_readlineb>
  402603:	48 85 c0             	test   %rax,%rax
  402606:	0f 8e 82 03 00 00    	jle    40298e <submitr+0x57b>
  40260c:	4c 8d 84 24 40 80 00 	lea    0x8040(%rsp),%r8
  402613:	00 
  402614:	48 8d 4c 24 1c       	lea    0x1c(%rsp),%rcx
  402619:	48 8d 94 24 40 60 00 	lea    0x6040(%rsp),%rdx
  402620:	00 
  402621:	be df 36 40 00       	mov    $0x4036df,%esi
  402626:	48 8d bc 24 40 20 00 	lea    0x2040(%rsp),%rdi
  40262d:	00 
  40262e:	b8 00 00 00 00       	mov    $0x0,%eax
  402633:	e8 88 e7 ff ff       	callq  400dc0 <__isoc99_sscanf@plt>
  402638:	48 8d b4 24 40 20 00 	lea    0x2040(%rsp),%rsi
  40263f:	00 
  402640:	bf f6 36 40 00       	mov    $0x4036f6,%edi
  402645:	b9 03 00 00 00       	mov    $0x3,%ecx
  40264a:	f3 a6                	repz cmpsb %es:(%rdi),%ds:(%rsi)
  40264c:	0f 97 c0             	seta   %al
  40264f:	1c 00                	sbb    $0x0,%al
  402651:	84 c0                	test   %al,%al
  402653:	0f 84 b3 03 00 00    	je     402a0c <submitr+0x5f9>
  402659:	ba 00 20 00 00       	mov    $0x2000,%edx
  40265e:	48 8d b4 24 40 20 00 	lea    0x2040(%rsp),%rsi
  402665:	00 
  402666:	48 8d 7c 24 30       	lea    0x30(%rsp),%rdi
  40266b:	e8 ee fb ff ff       	callq  40225e <rio_readlineb>
  402670:	48 85 c0             	test   %rax,%rax
  402673:	7f c3                	jg     402638 <submitr+0x225>
  402675:	48 b8 45 72 72 6f 72 	movabs $0x43203a726f727245,%rax
  40267c:	3a 20 43 
  40267f:	48 ba 6c 69 65 6e 74 	movabs $0x6e7520746e65696c,%rdx
  402686:	20 75 6e 
  402689:	48 89 45 00          	mov    %rax,0x0(%rbp)
  40268d:	48 89 55 08          	mov    %rdx,0x8(%rbp)
  402691:	48 b8 61 62 6c 65 20 	movabs $0x206f7420656c6261,%rax
  402698:	74 6f 20 
  40269b:	48 ba 72 65 61 64 20 	movabs $0x6165682064616572,%rdx
  4026a2:	68 65 61 
  4026a5:	48 89 45 10          	mov    %rax,0x10(%rbp)
  4026a9:	48 89 55 18          	mov    %rdx,0x18(%rbp)
  4026ad:	48 b8 64 65 72 73 20 	movabs $0x6f72662073726564,%rax
  4026b4:	66 72 6f 
  4026b7:	48 ba 6d 20 74 68 65 	movabs $0x657220656874206d,%rdx
  4026be:	20 72 65 
  4026c1:	48 89 45 20          	mov    %rax,0x20(%rbp)
  4026c5:	48 89 55 28          	mov    %rdx,0x28(%rbp)
  4026c9:	48 b8 73 75 6c 74 20 	movabs $0x72657320746c7573,%rax
  4026d0:	73 65 72 
  4026d3:	48 89 45 30          	mov    %rax,0x30(%rbp)
  4026d7:	c7 45 38 76 65 72 00 	movl   $0x726576,0x38(%rbp)
  4026de:	89 df                	mov    %ebx,%edi
  4026e0:	e8 3b e6 ff ff       	callq  400d20 <close@plt>
  4026e5:	b8 ff ff ff ff       	mov    $0xffffffff,%eax
  4026ea:	48 8b 9c 24 48 a0 00 	mov    0xa048(%rsp),%rbx
  4026f1:	00 
  4026f2:	64 48 33 1c 25 28 00 	xor    %fs:0x28,%rbx
  4026f9:	00 00 
  4026fb:	0f 85 76 04 00 00    	jne    402b77 <submitr+0x764>
  402701:	48 81 c4 58 a0 00 00 	add    $0xa058,%rsp
  402708:	5b                   	pop    %rbx
  402709:	5d                   	pop    %rbp
  40270a:	41 5c                	pop    %r12
  40270c:	41 5d                	pop    %r13
  40270e:	41 5e                	pop    %r14
  402710:	41 5f                	pop    %r15
  402712:	c3                   	retq   
  402713:	48 b8 45 72 72 6f 72 	movabs $0x43203a726f727245,%rax
  40271a:	3a 20 43 
  40271d:	48 ba 6c 69 65 6e 74 	movabs $0x6e7520746e65696c,%rdx
  402724:	20 75 6e 
  402727:	48 89 45 00          	mov    %rax,0x0(%rbp)
  40272b:	48 89 55 08          	mov    %rdx,0x8(%rbp)
  40272f:	48 b8 61 62 6c 65 20 	movabs $0x206f7420656c6261,%rax
  402736:	74 6f 20 
  402739:	48 ba 63 72 65 61 74 	movabs $0x7320657461657263,%rdx
  402740:	65 20 73 
  402743:	48 89 45 10          	mov    %rax,0x10(%rbp)
  402747:	48 89 55 18          	mov    %rdx,0x18(%rbp)
  40274b:	c7 45 20 6f 63 6b 65 	movl   $0x656b636f,0x20(%rbp)
  402752:	66 c7 45 24 74 00    	movw   $0x74,0x24(%rbp)
  402758:	b8 ff ff ff ff       	mov    $0xffffffff,%eax
  40275d:	eb 8b                	jmp    4026ea <submitr+0x2d7>
  40275f:	48 b8 45 72 72 6f 72 	movabs $0x44203a726f727245,%rax
  402766:	3a 20 44 
  402769:	48 ba 4e 53 20 69 73 	movabs $0x6e7520736920534e,%rdx
  402770:	20 75 6e 
  402773:	48 89 45 00          	mov    %rax,0x0(%rbp)
  402777:	48 89 55 08          	mov    %rdx,0x8(%rbp)
  40277b:	48 b8 61 62 6c 65 20 	movabs $0x206f7420656c6261,%rax
  402782:	74 6f 20 
  402785:	48 ba 72 65 73 6f 6c 	movabs $0x2065766c6f736572,%rdx
  40278c:	76 65 20 
  40278f:	48 89 45 10          	mov    %rax,0x10(%rbp)
  402793:	48 89 55 18          	mov    %rdx,0x18(%rbp)
  402797:	48 b8 73 65 72 76 65 	movabs $0x6120726576726573,%rax
  40279e:	72 20 61 
  4027a1:	48 89 45 20          	mov    %rax,0x20(%rbp)
  4027a5:	c7 45 28 64 64 72 65 	movl   $0x65726464,0x28(%rbp)
  4027ac:	66 c7 45 2c 73 73    	movw   $0x7373,0x2c(%rbp)
  4027b2:	c6 45 2e 00          	movb   $0x0,0x2e(%rbp)
  4027b6:	89 df                	mov    %ebx,%edi
  4027b8:	e8 63 e5 ff ff       	callq  400d20 <close@plt>
  4027bd:	b8 ff ff ff ff       	mov    $0xffffffff,%eax
  4027c2:	e9 23 ff ff ff       	jmpq   4026ea <submitr+0x2d7>
  4027c7:	48 b8 45 72 72 6f 72 	movabs $0x55203a726f727245,%rax
  4027ce:	3a 20 55 
  4027d1:	48 ba 6e 61 62 6c 65 	movabs $0x6f7420656c62616e,%rdx
  4027d8:	20 74 6f 
  4027db:	48 89 45 00          	mov    %rax,0x0(%rbp)
  4027df:	48 89 55 08          	mov    %rdx,0x8(%rbp)
  4027e3:	48 b8 20 63 6f 6e 6e 	movabs $0x7463656e6e6f6320,%rax
  4027ea:	65 63 74 
  4027ed:	48 ba 20 74 6f 20 74 	movabs $0x20656874206f7420,%rdx
  4027f4:	68 65 20 
  4027f7:	48 89 45 10          	mov    %rax,0x10(%rbp)
  4027fb:	48 89 55 18          	mov    %rdx,0x18(%rbp)
  4027ff:	c7 45 20 73 65 72 76 	movl   $0x76726573,0x20(%rbp)
  402806:	66 c7 45 24 65 72    	movw   $0x7265,0x24(%rbp)
  40280c:	c6 45 26 00          	movb   $0x0,0x26(%rbp)
  402810:	89 df                	mov    %ebx,%edi
  402812:	e8 09 e5 ff ff       	callq  400d20 <close@plt>
  402817:	b8 ff ff ff ff       	mov    $0xffffffff,%eax
  40281c:	e9 c9 fe ff ff       	jmpq   4026ea <submitr+0x2d7>
  402821:	48 b8 45 72 72 6f 72 	movabs $0x52203a726f727245,%rax
  402828:	3a 20 52 
  40282b:	48 ba 65 73 75 6c 74 	movabs $0x747320746c757365,%rdx
  402832:	20 73 74 
  402835:	48 89 45 00          	mov    %rax,0x0(%rbp)
  402839:	48 89 55 08          	mov    %rdx,0x8(%rbp)
  40283d:	48 b8 72 69 6e 67 20 	movabs $0x6f6f7420676e6972,%rax
  402844:	74 6f 6f 
  402847:	48 ba 20 6c 61 72 67 	movabs $0x202e656772616c20,%rdx
  40284e:	65 2e 20 
  402851:	48 89 45 10          	mov    %rax,0x10(%rbp)
  402855:	48 89 55 18          	mov    %rdx,0x18(%rbp)
  402859:	48 b8 49 6e 63 72 65 	movabs $0x6573616572636e49,%rax
  402860:	61 73 65 
  402863:	48 ba 20 53 55 42 4d 	movabs $0x5254494d42555320,%rdx
  40286a:	49 54 52 
  40286d:	48 89 45 20          	mov    %rax,0x20(%rbp)
  402871:	48 89 55 28          	mov    %rdx,0x28(%rbp)
  402875:	48 b8 5f 4d 41 58 42 	movabs $0x46554258414d5f,%rax
  40287c:	55 46 00 
  40287f:	48 89 45 30          	mov    %rax,0x30(%rbp)
  402883:	89 df                	mov    %ebx,%edi
  402885:	e8 96 e4 ff ff       	callq  400d20 <close@plt>
  40288a:	b8 ff ff ff ff       	mov    $0xffffffff,%eax
  40288f:	e9 56 fe ff ff       	jmpq   4026ea <submitr+0x2d7>
  402894:	48 b8 45 72 72 6f 72 	movabs $0x52203a726f727245,%rax
  40289b:	3a 20 52 
  40289e:	48 ba 65 73 75 6c 74 	movabs $0x747320746c757365,%rdx
  4028a5:	20 73 74 
  4028a8:	48 89 45 00          	mov    %rax,0x0(%rbp)
  4028ac:	48 89 55 08          	mov    %rdx,0x8(%rbp)
  4028b0:	48 b8 72 69 6e 67 20 	movabs $0x6e6f6320676e6972,%rax
  4028b7:	63 6f 6e 
  4028ba:	48 ba 74 61 69 6e 73 	movabs $0x6e6120736e696174,%rdx
  4028c1:	20 61 6e 
  4028c4:	48 89 45 10          	mov    %rax,0x10(%rbp)
  4028c8:	48 89 55 18          	mov    %rdx,0x18(%rbp)
  4028cc:	48 b8 20 69 6c 6c 65 	movabs $0x6c6167656c6c6920,%rax
  4028d3:	67 61 6c 
  4028d6:	48 ba 20 6f 72 20 75 	movabs $0x72706e7520726f20,%rdx
  4028dd:	6e 70 72 
  4028e0:	48 89 45 20          	mov    %rax,0x20(%rbp)
  4028e4:	48 89 55 28          	mov    %rdx,0x28(%rbp)
  4028e8:	48 b8 69 6e 74 61 62 	movabs $0x20656c6261746e69,%rax
  4028ef:	6c 65 20 
  4028f2:	48 ba 63 68 61 72 61 	movabs $0x6574636172616863,%rdx
  4028f9:	63 74 65 
  4028fc:	48 89 45 30          	mov    %rax,0x30(%rbp)
  402900:	48 89 55 38          	mov    %rdx,0x38(%rbp)
  402904:	66 c7 45 40 72 2e    	movw   $0x2e72,0x40(%rbp)
  40290a:	c6 45 42 00          	movb   $0x0,0x42(%rbp)
  40290e:	89 df                	mov    %ebx,%edi
  402910:	e8 0b e4 ff ff       	callq  400d20 <close@plt>
  402915:	b8 ff ff ff ff       	mov    $0xffffffff,%eax
  40291a:	e9 cb fd ff ff       	jmpq   4026ea <submitr+0x2d7>
  40291f:	48 b8 45 72 72 6f 72 	movabs $0x43203a726f727245,%rax
  402926:	3a 20 43 
  402929:	48 ba 6c 69 65 6e 74 	movabs $0x6e7520746e65696c,%rdx
  402930:	20 75 6e 
  402933:	48 89 45 00          	mov    %rax,0x0(%rbp)
  402937:	48 89 55 08          	mov    %rdx,0x8(%rbp)
  40293b:	48 b8 61 62 6c 65 20 	movabs $0x206f7420656c6261,%rax
  402942:	74 6f 20 
  402945:	48 ba 77 72 69 74 65 	movabs $0x6f74206574697277,%rdx
  40294c:	20 74 6f 
  40294f:	48 89 45 10          	mov    %rax,0x10(%rbp)
  402953:	48 89 55 18          	mov    %rdx,0x18(%rbp)
  402957:	48 b8 20 74 68 65 20 	movabs $0x7365722065687420,%rax
  40295e:	72 65 73 
  402961:	48 ba 75 6c 74 20 73 	movabs $0x7672657320746c75,%rdx
  402968:	65 72 76 
  40296b:	48 89 45 20          	mov    %rax,0x20(%rbp)
  40296f:	48 89 55 28          	mov    %rdx,0x28(%rbp)
  402973:	66 c7 45 30 65 72    	movw   $0x7265,0x30(%rbp)
  402979:	c6 45 32 00          	movb   $0x0,0x32(%rbp)
  40297d:	89 df                	mov    %ebx,%edi
  40297f:	e8 9c e3 ff ff       	callq  400d20 <close@plt>
  402984:	b8 ff ff ff ff       	mov    $0xffffffff,%eax
  402989:	e9 5c fd ff ff       	jmpq   4026ea <submitr+0x2d7>
  40298e:	48 b8 45 72 72 6f 72 	movabs $0x43203a726f727245,%rax
  402995:	3a 20 43 
  402998:	48 ba 6c 69 65 6e 74 	movabs $0x6e7520746e65696c,%rdx
  40299f:	20 75 6e 
  4029a2:	48 89 45 00          	mov    %rax,0x0(%rbp)
  4029a6:	48 89 55 08          	mov    %rdx,0x8(%rbp)
  4029aa:	48 b8 61 62 6c 65 20 	movabs $0x206f7420656c6261,%rax
  4029b1:	74 6f 20 
  4029b4:	48 ba 72 65 61 64 20 	movabs $0x7269662064616572,%rdx
  4029bb:	66 69 72 
  4029be:	48 89 45 10          	mov    %rax,0x10(%rbp)
  4029c2:	48 89 55 18          	mov    %rdx,0x18(%rbp)
  4029c6:	48 b8 73 74 20 68 65 	movabs $0x6564616568207473,%rax
  4029cd:	61 64 65 
  4029d0:	48 ba 72 20 66 72 6f 	movabs $0x72206d6f72662072,%rdx
  4029d7:	6d 20 72 
  4029da:	48 89 45 20          	mov    %rax,0x20(%rbp)
  4029de:	48 89 55 28          	mov    %rdx,0x28(%rbp)
  4029e2:	48 b8 65 73 75 6c 74 	movabs $0x657320746c757365,%rax
  4029e9:	20 73 65 
  4029ec:	48 89 45 30          	mov    %rax,0x30(%rbp)
  4029f0:	c7 45 38 72 76 65 72 	movl   $0x72657672,0x38(%rbp)
  4029f7:	c6 45 3c 00          	movb   $0x0,0x3c(%rbp)
  4029fb:	89 df                	mov    %ebx,%edi
  4029fd:	e8 1e e3 ff ff       	callq  400d20 <close@plt>
  402a02:	b8 ff ff ff ff       	mov    $0xffffffff,%eax
  402a07:	e9 de fc ff ff       	jmpq   4026ea <submitr+0x2d7>
  402a0c:	ba 00 20 00 00       	mov    $0x2000,%edx
  402a11:	48 8d b4 24 40 20 00 	lea    0x2040(%rsp),%rsi
  402a18:	00 
  402a19:	48 8d 7c 24 30       	lea    0x30(%rsp),%rdi
  402a1e:	e8 3b f8 ff ff       	callq  40225e <rio_readlineb>
  402a23:	48 85 c0             	test   %rax,%rax
  402a26:	0f 8e 90 00 00 00    	jle    402abc <submitr+0x6a9>
  402a2c:	44 8b 44 24 1c       	mov    0x1c(%rsp),%r8d
  402a31:	41 81 f8 c8 00 00 00 	cmp    $0xc8,%r8d
  402a38:	0f 85 02 01 00 00    	jne    402b40 <submitr+0x72d>
  402a3e:	48 8d b4 24 40 20 00 	lea    0x2040(%rsp),%rsi
  402a45:	00 
  402a46:	48 89 ef             	mov    %rbp,%rdi
  402a49:	e8 62 e2 ff ff       	callq  400cb0 <strcpy@plt>
  402a4e:	89 df                	mov    %ebx,%edi
  402a50:	e8 cb e2 ff ff       	callq  400d20 <close@plt>
  402a55:	bf f0 36 40 00       	mov    $0x4036f0,%edi
  402a5a:	b9 04 00 00 00       	mov    $0x4,%ecx
  402a5f:	48 89 ee             	mov    %rbp,%rsi
  402a62:	f3 a6                	repz cmpsb %es:(%rdi),%ds:(%rsi)
  402a64:	0f 97 c0             	seta   %al
  402a67:	1c 00                	sbb    $0x0,%al
  402a69:	0f be c0             	movsbl %al,%eax
  402a6c:	85 c0                	test   %eax,%eax
  402a6e:	0f 84 76 fc ff ff    	je     4026ea <submitr+0x2d7>
  402a74:	bf f4 36 40 00       	mov    $0x4036f4,%edi
  402a79:	b9 05 00 00 00       	mov    $0x5,%ecx
  402a7e:	48 89 ee             	mov    %rbp,%rsi
  402a81:	f3 a6                	repz cmpsb %es:(%rdi),%ds:(%rsi)
  402a83:	0f 97 c0             	seta   %al
  402a86:	1c 00                	sbb    $0x0,%al
  402a88:	0f be c0             	movsbl %al,%eax
  402a8b:	85 c0                	test   %eax,%eax
  402a8d:	0f 84 57 fc ff ff    	je     4026ea <submitr+0x2d7>
  402a93:	bf f9 36 40 00       	mov    $0x4036f9,%edi
  402a98:	b9 03 00 00 00       	mov    $0x3,%ecx
  402a9d:	48 89 ee             	mov    %rbp,%rsi
  402aa0:	f3 a6                	repz cmpsb %es:(%rdi),%ds:(%rsi)
  402aa2:	0f 97 c0             	seta   %al
  402aa5:	1c 00                	sbb    $0x0,%al
  402aa7:	0f be c0             	movsbl %al,%eax
  402aaa:	85 c0                	test   %eax,%eax
  402aac:	0f 84 38 fc ff ff    	je     4026ea <submitr+0x2d7>
  402ab2:	b8 ff ff ff ff       	mov    $0xffffffff,%eax
  402ab7:	e9 2e fc ff ff       	jmpq   4026ea <submitr+0x2d7>
  402abc:	48 b8 45 72 72 6f 72 	movabs $0x43203a726f727245,%rax
  402ac3:	3a 20 43 
  402ac6:	48 ba 6c 69 65 6e 74 	movabs $0x6e7520746e65696c,%rdx
  402acd:	20 75 6e 
  402ad0:	48 89 45 00          	mov    %rax,0x0(%rbp)
  402ad4:	48 89 55 08          	mov    %rdx,0x8(%rbp)
  402ad8:	48 b8 61 62 6c 65 20 	movabs $0x206f7420656c6261,%rax
  402adf:	74 6f 20 
  402ae2:	48 ba 72 65 61 64 20 	movabs $0x6174732064616572,%rdx
  402ae9:	73 74 61 
  402aec:	48 89 45 10          	mov    %rax,0x10(%rbp)
  402af0:	48 89 55 18          	mov    %rdx,0x18(%rbp)
  402af4:	48 b8 74 75 73 20 6d 	movabs $0x7373656d20737574,%rax
  402afb:	65 73 73 
  402afe:	48 ba 61 67 65 20 66 	movabs $0x6d6f726620656761,%rdx
  402b05:	72 6f 6d 
  402b08:	48 89 45 20          	mov    %rax,0x20(%rbp)
  402b0c:	48 89 55 28          	mov    %rdx,0x28(%rbp)
  402b10:	48 b8 20 72 65 73 75 	movabs $0x20746c7573657220,%rax
  402b17:	6c 74 20 
  402b1a:	48 89 45 30          	mov    %rax,0x30(%rbp)
  402b1e:	c7 45 38 73 65 72 76 	movl   $0x76726573,0x38(%rbp)
  402b25:	66 c7 45 3c 65 72    	movw   $0x7265,0x3c(%rbp)
  402b2b:	c6 45 3e 00          	movb   $0x0,0x3e(%rbp)
  402b2f:	89 df                	mov    %ebx,%edi
  402b31:	e8 ea e1 ff ff       	callq  400d20 <close@plt>
  402b36:	b8 ff ff ff ff       	mov    $0xffffffff,%eax
  402b3b:	e9 aa fb ff ff       	jmpq   4026ea <submitr+0x2d7>
  402b40:	4c 8d 8c 24 40 80 00 	lea    0x8040(%rsp),%r9
  402b47:	00 
  402b48:	b9 a8 36 40 00       	mov    $0x4036a8,%ecx
  402b4d:	48 c7 c2 ff ff ff ff 	mov    $0xffffffffffffffff,%rdx
  402b54:	be 01 00 00 00       	mov    $0x1,%esi
  402b59:	48 89 ef             	mov    %rbp,%rdi
  402b5c:	b8 00 00 00 00       	mov    $0x0,%eax
  402b61:	e8 fa e2 ff ff       	callq  400e60 <__sprintf_chk@plt>
  402b66:	89 df                	mov    %ebx,%edi
  402b68:	e8 b3 e1 ff ff       	callq  400d20 <close@plt>
  402b6d:	b8 ff ff ff ff       	mov    $0xffffffff,%eax
  402b72:	e9 73 fb ff ff       	jmpq   4026ea <submitr+0x2d7>
  402b77:	e8 64 e1 ff ff       	callq  400ce0 <__stack_chk_fail@plt>

0000000000402b7c <init_timeout>:
  402b7c:	85 ff                	test   %edi,%edi
  402b7e:	74 26                	je     402ba6 <init_timeout+0x2a>
  402b80:	53                   	push   %rbx
  402b81:	89 fb                	mov    %edi,%ebx
  402b83:	85 ff                	test   %edi,%edi
  402b85:	78 18                	js     402b9f <init_timeout+0x23>
  402b87:	be 47 21 40 00       	mov    $0x402147,%esi
  402b8c:	bf 0e 00 00 00       	mov    $0xe,%edi
  402b91:	e8 aa e1 ff ff       	callq  400d40 <signal@plt>
  402b96:	89 df                	mov    %ebx,%edi
  402b98:	e8 73 e1 ff ff       	callq  400d10 <alarm@plt>
  402b9d:	5b                   	pop    %rbx
  402b9e:	c3                   	retq   
  402b9f:	bb 00 00 00 00       	mov    $0x0,%ebx
  402ba4:	eb e1                	jmp    402b87 <init_timeout+0xb>
  402ba6:	f3 c3                	repz retq 

0000000000402ba8 <init_driver>:
  402ba8:	55                   	push   %rbp
  402ba9:	53                   	push   %rbx
  402baa:	48 83 ec 28          	sub    $0x28,%rsp
  402bae:	48 89 fd             	mov    %rdi,%rbp
  402bb1:	64 48 8b 04 25 28 00 	mov    %fs:0x28,%rax
  402bb8:	00 00 
  402bba:	48 89 44 24 18       	mov    %rax,0x18(%rsp)
  402bbf:	31 c0                	xor    %eax,%eax
  402bc1:	be 01 00 00 00       	mov    $0x1,%esi
  402bc6:	bf 0d 00 00 00       	mov    $0xd,%edi
  402bcb:	e8 70 e1 ff ff       	callq  400d40 <signal@plt>
  402bd0:	be 01 00 00 00       	mov    $0x1,%esi
  402bd5:	bf 1d 00 00 00       	mov    $0x1d,%edi
  402bda:	e8 61 e1 ff ff       	callq  400d40 <signal@plt>
  402bdf:	be 01 00 00 00       	mov    $0x1,%esi
  402be4:	bf 1d 00 00 00       	mov    $0x1d,%edi
  402be9:	e8 52 e1 ff ff       	callq  400d40 <signal@plt>
  402bee:	ba 00 00 00 00       	mov    $0x0,%edx
  402bf3:	be 01 00 00 00       	mov    $0x1,%esi
  402bf8:	bf 02 00 00 00       	mov    $0x2,%edi
  402bfd:	e8 6e e2 ff ff       	callq  400e70 <socket@plt>
  402c02:	85 c0                	test   %eax,%eax
  402c04:	0f 88 9c 00 00 00    	js     402ca6 <init_driver+0xfe>
  402c0a:	89 c3                	mov    %eax,%ebx
  402c0c:	bf fc 36 40 00       	mov    $0x4036fc,%edi
  402c11:	e8 3a e1 ff ff       	callq  400d50 <gethostbyname@plt>
  402c16:	48 85 c0             	test   %rax,%rax
  402c19:	0f 84 d3 00 00 00    	je     402cf2 <init_driver+0x14a>
  402c1f:	48 c7 44 24 02 00 00 	movq   $0x0,0x2(%rsp)
  402c26:	00 00 
  402c28:	c7 44 24 0a 00 00 00 	movl   $0x0,0xa(%rsp)
  402c2f:	00 
  402c30:	66 c7 44 24 0e 00 00 	movw   $0x0,0xe(%rsp)
  402c37:	66 c7 04 24 02 00    	movw   $0x2,(%rsp)
  402c3d:	48 63 50 14          	movslq 0x14(%rax),%rdx
  402c41:	48 8b 40 18          	mov    0x18(%rax),%rax
  402c45:	48 8b 30             	mov    (%rax),%rsi
  402c48:	48 8d 7c 24 04       	lea    0x4(%rsp),%rdi
  402c4d:	b9 0c 00 00 00       	mov    $0xc,%ecx
  402c52:	e8 09 e1 ff ff       	callq  400d60 <__memmove_chk@plt>
  402c57:	66 c7 44 24 02 3c 9a 	movw   $0x9a3c,0x2(%rsp)
  402c5e:	ba 10 00 00 00       	mov    $0x10,%edx
  402c63:	48 89 e6             	mov    %rsp,%rsi
  402c66:	89 df                	mov    %ebx,%edi
  402c68:	e8 d3 e1 ff ff       	callq  400e40 <connect@plt>
  402c6d:	85 c0                	test   %eax,%eax
  402c6f:	0f 88 e5 00 00 00    	js     402d5a <init_driver+0x1b2>
  402c75:	89 df                	mov    %ebx,%edi
  402c77:	e8 a4 e0 ff ff       	callq  400d20 <close@plt>
  402c7c:	66 c7 45 00 4f 4b    	movw   $0x4b4f,0x0(%rbp)
  402c82:	c6 45 02 00          	movb   $0x0,0x2(%rbp)
  402c86:	b8 00 00 00 00       	mov    $0x0,%eax
  402c8b:	48 8b 4c 24 18       	mov    0x18(%rsp),%rcx
  402c90:	64 48 33 0c 25 28 00 	xor    %fs:0x28,%rcx
  402c97:	00 00 
  402c99:	0f 85 0e 01 00 00    	jne    402dad <init_driver+0x205>
  402c9f:	48 83 c4 28          	add    $0x28,%rsp
  402ca3:	5b                   	pop    %rbx
  402ca4:	5d                   	pop    %rbp
  402ca5:	c3                   	retq   
  402ca6:	48 b8 45 72 72 6f 72 	movabs $0x43203a726f727245,%rax
  402cad:	3a 20 43 
  402cb0:	48 ba 6c 69 65 6e 74 	movabs $0x6e7520746e65696c,%rdx
  402cb7:	20 75 6e 
  402cba:	48 89 45 00          	mov    %rax,0x0(%rbp)
  402cbe:	48 89 55 08          	mov    %rdx,0x8(%rbp)
  402cc2:	48 b8 61 62 6c 65 20 	movabs $0x206f7420656c6261,%rax
  402cc9:	74 6f 20 
  402ccc:	48 ba 63 72 65 61 74 	movabs $0x7320657461657263,%rdx
  402cd3:	65 20 73 
  402cd6:	48 89 45 10          	mov    %rax,0x10(%rbp)
  402cda:	48 89 55 18          	mov    %rdx,0x18(%rbp)
  402cde:	c7 45 20 6f 63 6b 65 	movl   $0x656b636f,0x20(%rbp)
  402ce5:	66 c7 45 24 74 00    	movw   $0x74,0x24(%rbp)
  402ceb:	b8 ff ff ff ff       	mov    $0xffffffff,%eax
  402cf0:	eb 99                	jmp    402c8b <init_driver+0xe3>
  402cf2:	48 b8 45 72 72 6f 72 	movabs $0x44203a726f727245,%rax
  402cf9:	3a 20 44 
  402cfc:	48 ba 4e 53 20 69 73 	movabs $0x6e7520736920534e,%rdx
  402d03:	20 75 6e 
  402d06:	48 89 45 00          	mov    %rax,0x0(%rbp)
  402d0a:	48 89 55 08          	mov    %rdx,0x8(%rbp)
  402d0e:	48 b8 61 62 6c 65 20 	movabs $0x206f7420656c6261,%rax
  402d15:	74 6f 20 
  402d18:	48 ba 72 65 73 6f 6c 	movabs $0x2065766c6f736572,%rdx
  402d1f:	76 65 20 
  402d22:	48 89 45 10          	mov    %rax,0x10(%rbp)
  402d26:	48 89 55 18          	mov    %rdx,0x18(%rbp)
  402d2a:	48 b8 73 65 72 76 65 	movabs $0x6120726576726573,%rax
  402d31:	72 20 61 
  402d34:	48 89 45 20          	mov    %rax,0x20(%rbp)
  402d38:	c7 45 28 64 64 72 65 	movl   $0x65726464,0x28(%rbp)
  402d3f:	66 c7 45 2c 73 73    	movw   $0x7373,0x2c(%rbp)
  402d45:	c6 45 2e 00          	movb   $0x0,0x2e(%rbp)
  402d49:	89 df                	mov    %ebx,%edi
  402d4b:	e8 d0 df ff ff       	callq  400d20 <close@plt>
  402d50:	b8 ff ff ff ff       	mov    $0xffffffff,%eax
  402d55:	e9 31 ff ff ff       	jmpq   402c8b <init_driver+0xe3>
  402d5a:	48 b8 45 72 72 6f 72 	movabs $0x55203a726f727245,%rax
  402d61:	3a 20 55 
  402d64:	48 ba 6e 61 62 6c 65 	movabs $0x6f7420656c62616e,%rdx
  402d6b:	20 74 6f 
  402d6e:	48 89 45 00          	mov    %rax,0x0(%rbp)
  402d72:	48 89 55 08          	mov    %rdx,0x8(%rbp)
  402d76:	48 b8 20 63 6f 6e 6e 	movabs $0x7463656e6e6f6320,%rax
  402d7d:	65 63 74 
  402d80:	48 ba 20 74 6f 20 73 	movabs $0x76726573206f7420,%rdx
  402d87:	65 72 76 
  402d8a:	48 89 45 10          	mov    %rax,0x10(%rbp)
  402d8e:	48 89 55 18          	mov    %rdx,0x18(%rbp)
  402d92:	66 c7 45 20 65 72    	movw   $0x7265,0x20(%rbp)
  402d98:	c6 45 22 00          	movb   $0x0,0x22(%rbp)
  402d9c:	89 df                	mov    %ebx,%edi
  402d9e:	e8 7d df ff ff       	callq  400d20 <close@plt>
  402da3:	b8 ff ff ff ff       	mov    $0xffffffff,%eax
  402da8:	e9 de fe ff ff       	jmpq   402c8b <init_driver+0xe3>
  402dad:	e8 2e df ff ff       	callq  400ce0 <__stack_chk_fail@plt>

0000000000402db2 <driver_post>:
  402db2:	53                   	push   %rbx
  402db3:	4c 89 cb             	mov    %r9,%rbx
  402db6:	45 85 c0             	test   %r8d,%r8d
  402db9:	75 18                	jne    402dd3 <driver_post+0x21>
  402dbb:	48 85 ff             	test   %rdi,%rdi
  402dbe:	74 05                	je     402dc5 <driver_post+0x13>
  402dc0:	80 3f 00             	cmpb   $0x0,(%rdi)
  402dc3:	75 35                	jne    402dfa <driver_post+0x48>
  402dc5:	66 c7 03 4f 4b       	movw   $0x4b4f,(%rbx)
  402dca:	c6 43 02 00          	movb   $0x0,0x2(%rbx)
  402dce:	44 89 c0             	mov    %r8d,%eax
  402dd1:	5b                   	pop    %rbx
  402dd2:	c3                   	retq   
  402dd3:	48 89 ca             	mov    %rcx,%rdx
  402dd6:	be 14 37 40 00       	mov    $0x403714,%esi
  402ddb:	bf 01 00 00 00       	mov    $0x1,%edi
  402de0:	b8 00 00 00 00       	mov    $0x0,%eax
  402de5:	e8 f6 df ff ff       	callq  400de0 <__printf_chk@plt>
  402dea:	66 c7 03 4f 4b       	movw   $0x4b4f,(%rbx)
  402def:	c6 43 02 00          	movb   $0x0,0x2(%rbx)
  402df3:	b8 00 00 00 00       	mov    $0x0,%eax
  402df8:	eb d7                	jmp    402dd1 <driver_post+0x1f>
  402dfa:	48 83 ec 08          	sub    $0x8,%rsp
  402dfe:	41 51                	push   %r9
  402e00:	49 89 c9             	mov    %rcx,%r9
  402e03:	49 89 d0             	mov    %rdx,%r8
  402e06:	48 89 f9             	mov    %rdi,%rcx
  402e09:	48 89 f2             	mov    %rsi,%rdx
  402e0c:	be 9a 3c 00 00       	mov    $0x3c9a,%esi
  402e11:	bf fc 36 40 00       	mov    $0x4036fc,%edi
  402e16:	e8 f8 f5 ff ff       	callq  402413 <submitr>
  402e1b:	48 83 c4 10          	add    $0x10,%rsp
  402e1f:	eb b0                	jmp    402dd1 <driver_post+0x1f>

0000000000402e21 <check>:
  402e21:	89 f8                	mov    %edi,%eax
  402e23:	c1 e8 1c             	shr    $0x1c,%eax
  402e26:	85 c0                	test   %eax,%eax
  402e28:	74 1d                	je     402e47 <check+0x26>
  402e2a:	b9 00 00 00 00       	mov    $0x0,%ecx
  402e2f:	83 f9 1f             	cmp    $0x1f,%ecx
  402e32:	7f 0d                	jg     402e41 <check+0x20>
  402e34:	89 f8                	mov    %edi,%eax
  402e36:	d3 e8                	shr    %cl,%eax
  402e38:	3c 0a                	cmp    $0xa,%al
  402e3a:	74 11                	je     402e4d <check+0x2c>
  402e3c:	83 c1 08             	add    $0x8,%ecx
  402e3f:	eb ee                	jmp    402e2f <check+0xe>
  402e41:	b8 01 00 00 00       	mov    $0x1,%eax
  402e46:	c3                   	retq   
  402e47:	b8 00 00 00 00       	mov    $0x0,%eax
  402e4c:	c3                   	retq   
  402e4d:	b8 00 00 00 00       	mov    $0x0,%eax
  402e52:	c3                   	retq   

0000000000402e53 <gencookie>:
  402e53:	53                   	push   %rbx
  402e54:	83 c7 01             	add    $0x1,%edi
  402e57:	e8 34 de ff ff       	callq  400c90 <srandom@plt>
  402e5c:	e8 3f df ff ff       	callq  400da0 <random@plt>
  402e61:	89 c3                	mov    %eax,%ebx
  402e63:	89 c7                	mov    %eax,%edi
  402e65:	e8 b7 ff ff ff       	callq  402e21 <check>
  402e6a:	85 c0                	test   %eax,%eax
  402e6c:	74 ee                	je     402e5c <gencookie+0x9>
  402e6e:	89 d8                	mov    %ebx,%eax
  402e70:	5b                   	pop    %rbx
  402e71:	c3                   	retq   
  402e72:	66 2e 0f 1f 84 00 00 	nopw   %cs:0x0(%rax,%rax,1)
  402e79:	00 00 00 
  402e7c:	0f 1f 40 00          	nopl   0x0(%rax)

0000000000402e80 <__libc_csu_init>:
  402e80:	41 57                	push   %r15
  402e82:	41 56                	push   %r14
  402e84:	49 89 d7             	mov    %rdx,%r15
  402e87:	41 55                	push   %r13
  402e89:	41 54                	push   %r12
  402e8b:	4c 8d 25 7e 1f 20 00 	lea    0x201f7e(%rip),%r12        # 604e10 <__frame_dummy_init_array_entry>
  402e92:	55                   	push   %rbp
  402e93:	48 8d 2d 7e 1f 20 00 	lea    0x201f7e(%rip),%rbp        # 604e18 <__init_array_end>
  402e9a:	53                   	push   %rbx
  402e9b:	41 89 fd             	mov    %edi,%r13d
  402e9e:	49 89 f6             	mov    %rsi,%r14
  402ea1:	4c 29 e5             	sub    %r12,%rbp
  402ea4:	48 83 ec 08          	sub    $0x8,%rsp
  402ea8:	48 c1 fd 03          	sar    $0x3,%rbp
  402eac:	e8 97 dd ff ff       	callq  400c48 <_init>
  402eb1:	48 85 ed             	test   %rbp,%rbp
  402eb4:	74 20                	je     402ed6 <__libc_csu_init+0x56>
  402eb6:	31 db                	xor    %ebx,%ebx
  402eb8:	0f 1f 84 00 00 00 00 	nopl   0x0(%rax,%rax,1)
  402ebf:	00 
  402ec0:	4c 89 fa             	mov    %r15,%rdx
  402ec3:	4c 89 f6             	mov    %r14,%rsi
  402ec6:	44 89 ef             	mov    %r13d,%edi
  402ec9:	41 ff 14 dc          	callq  *(%r12,%rbx,8)
  402ecd:	48 83 c3 01          	add    $0x1,%rbx
  402ed1:	48 39 dd             	cmp    %rbx,%rbp
  402ed4:	75 ea                	jne    402ec0 <__libc_csu_init+0x40>
  402ed6:	48 83 c4 08          	add    $0x8,%rsp
  402eda:	5b                   	pop    %rbx
  402edb:	5d                   	pop    %rbp
  402edc:	41 5c                	pop    %r12
  402ede:	41 5d                	pop    %r13
  402ee0:	41 5e                	pop    %r14
  402ee2:	41 5f                	pop    %r15
  402ee4:	c3                   	retq   
  402ee5:	90                   	nop
  402ee6:	66 2e 0f 1f 84 00 00 	nopw   %cs:0x0(%rax,%rax,1)
  402eed:	00 00 00 

0000000000402ef0 <__libc_csu_fini>:
  402ef0:	f3 c3                	repz retq 

Disassembly of section .fini:

0000000000402ef4 <_fini>:
  402ef4:	48 83 ec 08          	sub    $0x8,%rsp
  402ef8:	48 83 c4 08          	add    $0x8,%rsp
  402efc:	c3                   	retq   
