
rtarget:     file format elf64-x86-64


Disassembly of section .init:

0000000000400c48 <_init>:
  400c48:	48 83 ec 08          	sub    $0x8,%rsp
  400c4c:	48 8b 05 a5 43 20 00 	mov    0x2043a5(%rip),%rax        # 604ff8 <__gmon_start__>
  400c53:	48 85 c0             	test   %rax,%rax
  400c56:	74 02                	je     400c5a <_init+0x12>
  400c58:	ff d0                	callq  *%rax
  400c5a:	48 83 c4 08          	add    $0x8,%rsp
  400c5e:	c3                   	retq   

Disassembly of section .plt:

0000000000400c60 <.plt>:
  400c60:	ff 35 a2 43 20 00    	pushq  0x2043a2(%rip)        # 605008 <_GLOBAL_OFFSET_TABLE_+0x8>
  400c66:	ff 25 a4 43 20 00    	jmpq   *0x2043a4(%rip)        # 605010 <_GLOBAL_OFFSET_TABLE_+0x10>
  400c6c:	0f 1f 40 00          	nopl   0x0(%rax)

0000000000400c70 <strcasecmp@plt>:
  400c70:	ff 25 a2 43 20 00    	jmpq   *0x2043a2(%rip)        # 605018 <strcasecmp@GLIBC_2.2.5>
  400c76:	68 00 00 00 00       	pushq  $0x0
  400c7b:	e9 e0 ff ff ff       	jmpq   400c60 <.plt>

0000000000400c80 <__errno_location@plt>:
  400c80:	ff 25 9a 43 20 00    	jmpq   *0x20439a(%rip)        # 605020 <__errno_location@GLIBC_2.2.5>
  400c86:	68 01 00 00 00       	pushq  $0x1
  400c8b:	e9 d0 ff ff ff       	jmpq   400c60 <.plt>

0000000000400c90 <srandom@plt>:
  400c90:	ff 25 92 43 20 00    	jmpq   *0x204392(%rip)        # 605028 <srandom@GLIBC_2.2.5>
  400c96:	68 02 00 00 00       	pushq  $0x2
  400c9b:	e9 c0 ff ff ff       	jmpq   400c60 <.plt>

0000000000400ca0 <strncmp@plt>:
  400ca0:	ff 25 8a 43 20 00    	jmpq   *0x20438a(%rip)        # 605030 <strncmp@GLIBC_2.2.5>
  400ca6:	68 03 00 00 00       	pushq  $0x3
  400cab:	e9 b0 ff ff ff       	jmpq   400c60 <.plt>

0000000000400cb0 <strcpy@plt>:
  400cb0:	ff 25 82 43 20 00    	jmpq   *0x204382(%rip)        # 605038 <strcpy@GLIBC_2.2.5>
  400cb6:	68 04 00 00 00       	pushq  $0x4
  400cbb:	e9 a0 ff ff ff       	jmpq   400c60 <.plt>

0000000000400cc0 <puts@plt>:
  400cc0:	ff 25 7a 43 20 00    	jmpq   *0x20437a(%rip)        # 605040 <puts@GLIBC_2.2.5>
  400cc6:	68 05 00 00 00       	pushq  $0x5
  400ccb:	e9 90 ff ff ff       	jmpq   400c60 <.plt>

0000000000400cd0 <write@plt>:
  400cd0:	ff 25 72 43 20 00    	jmpq   *0x204372(%rip)        # 605048 <write@GLIBC_2.2.5>
  400cd6:	68 06 00 00 00       	pushq  $0x6
  400cdb:	e9 80 ff ff ff       	jmpq   400c60 <.plt>

0000000000400ce0 <__stack_chk_fail@plt>:
  400ce0:	ff 25 6a 43 20 00    	jmpq   *0x20436a(%rip)        # 605050 <__stack_chk_fail@GLIBC_2.4>
  400ce6:	68 07 00 00 00       	pushq  $0x7
  400ceb:	e9 70 ff ff ff       	jmpq   400c60 <.plt>

0000000000400cf0 <mmap@plt>:
  400cf0:	ff 25 62 43 20 00    	jmpq   *0x204362(%rip)        # 605058 <mmap@GLIBC_2.2.5>
  400cf6:	68 08 00 00 00       	pushq  $0x8
  400cfb:	e9 60 ff ff ff       	jmpq   400c60 <.plt>

0000000000400d00 <memset@plt>:
  400d00:	ff 25 5a 43 20 00    	jmpq   *0x20435a(%rip)        # 605060 <memset@GLIBC_2.2.5>
  400d06:	68 09 00 00 00       	pushq  $0x9
  400d0b:	e9 50 ff ff ff       	jmpq   400c60 <.plt>

0000000000400d10 <alarm@plt>:
  400d10:	ff 25 52 43 20 00    	jmpq   *0x204352(%rip)        # 605068 <alarm@GLIBC_2.2.5>
  400d16:	68 0a 00 00 00       	pushq  $0xa
  400d1b:	e9 40 ff ff ff       	jmpq   400c60 <.plt>

0000000000400d20 <close@plt>:
  400d20:	ff 25 4a 43 20 00    	jmpq   *0x20434a(%rip)        # 605070 <close@GLIBC_2.2.5>
  400d26:	68 0b 00 00 00       	pushq  $0xb
  400d2b:	e9 30 ff ff ff       	jmpq   400c60 <.plt>

0000000000400d30 <read@plt>:
  400d30:	ff 25 42 43 20 00    	jmpq   *0x204342(%rip)        # 605078 <read@GLIBC_2.2.5>
  400d36:	68 0c 00 00 00       	pushq  $0xc
  400d3b:	e9 20 ff ff ff       	jmpq   400c60 <.plt>

0000000000400d40 <signal@plt>:
  400d40:	ff 25 3a 43 20 00    	jmpq   *0x20433a(%rip)        # 605080 <signal@GLIBC_2.2.5>
  400d46:	68 0d 00 00 00       	pushq  $0xd
  400d4b:	e9 10 ff ff ff       	jmpq   400c60 <.plt>

0000000000400d50 <gethostbyname@plt>:
  400d50:	ff 25 32 43 20 00    	jmpq   *0x204332(%rip)        # 605088 <gethostbyname@GLIBC_2.2.5>
  400d56:	68 0e 00 00 00       	pushq  $0xe
  400d5b:	e9 00 ff ff ff       	jmpq   400c60 <.plt>

0000000000400d60 <__memmove_chk@plt>:
  400d60:	ff 25 2a 43 20 00    	jmpq   *0x20432a(%rip)        # 605090 <__memmove_chk@GLIBC_2.3.4>
  400d66:	68 0f 00 00 00       	pushq  $0xf
  400d6b:	e9 f0 fe ff ff       	jmpq   400c60 <.plt>

0000000000400d70 <strtol@plt>:
  400d70:	ff 25 22 43 20 00    	jmpq   *0x204322(%rip)        # 605098 <strtol@GLIBC_2.2.5>
  400d76:	68 10 00 00 00       	pushq  $0x10
  400d7b:	e9 e0 fe ff ff       	jmpq   400c60 <.plt>

0000000000400d80 <memcpy@plt>:
  400d80:	ff 25 1a 43 20 00    	jmpq   *0x20431a(%rip)        # 6050a0 <memcpy@GLIBC_2.14>
  400d86:	68 11 00 00 00       	pushq  $0x11
  400d8b:	e9 d0 fe ff ff       	jmpq   400c60 <.plt>

0000000000400d90 <time@plt>:
  400d90:	ff 25 12 43 20 00    	jmpq   *0x204312(%rip)        # 6050a8 <time@GLIBC_2.2.5>
  400d96:	68 12 00 00 00       	pushq  $0x12
  400d9b:	e9 c0 fe ff ff       	jmpq   400c60 <.plt>

0000000000400da0 <random@plt>:
  400da0:	ff 25 0a 43 20 00    	jmpq   *0x20430a(%rip)        # 6050b0 <random@GLIBC_2.2.5>
  400da6:	68 13 00 00 00       	pushq  $0x13
  400dab:	e9 b0 fe ff ff       	jmpq   400c60 <.plt>

0000000000400db0 <_IO_getc@plt>:
  400db0:	ff 25 02 43 20 00    	jmpq   *0x204302(%rip)        # 6050b8 <_IO_getc@GLIBC_2.2.5>
  400db6:	68 14 00 00 00       	pushq  $0x14
  400dbb:	e9 a0 fe ff ff       	jmpq   400c60 <.plt>

0000000000400dc0 <__isoc99_sscanf@plt>:
  400dc0:	ff 25 fa 42 20 00    	jmpq   *0x2042fa(%rip)        # 6050c0 <__isoc99_sscanf@GLIBC_2.7>
  400dc6:	68 15 00 00 00       	pushq  $0x15
  400dcb:	e9 90 fe ff ff       	jmpq   400c60 <.plt>

0000000000400dd0 <munmap@plt>:
  400dd0:	ff 25 f2 42 20 00    	jmpq   *0x2042f2(%rip)        # 6050c8 <munmap@GLIBC_2.2.5>
  400dd6:	68 16 00 00 00       	pushq  $0x16
  400ddb:	e9 80 fe ff ff       	jmpq   400c60 <.plt>

0000000000400de0 <__printf_chk@plt>:
  400de0:	ff 25 ea 42 20 00    	jmpq   *0x2042ea(%rip)        # 6050d0 <__printf_chk@GLIBC_2.3.4>
  400de6:	68 17 00 00 00       	pushq  $0x17
  400deb:	e9 70 fe ff ff       	jmpq   400c60 <.plt>

0000000000400df0 <fopen@plt>:
  400df0:	ff 25 e2 42 20 00    	jmpq   *0x2042e2(%rip)        # 6050d8 <fopen@GLIBC_2.2.5>
  400df6:	68 18 00 00 00       	pushq  $0x18
  400dfb:	e9 60 fe ff ff       	jmpq   400c60 <.plt>

0000000000400e00 <getopt@plt>:
  400e00:	ff 25 da 42 20 00    	jmpq   *0x2042da(%rip)        # 6050e0 <getopt@GLIBC_2.2.5>
  400e06:	68 19 00 00 00       	pushq  $0x19
  400e0b:	e9 50 fe ff ff       	jmpq   400c60 <.plt>

0000000000400e10 <strtoul@plt>:
  400e10:	ff 25 d2 42 20 00    	jmpq   *0x2042d2(%rip)        # 6050e8 <strtoul@GLIBC_2.2.5>
  400e16:	68 1a 00 00 00       	pushq  $0x1a
  400e1b:	e9 40 fe ff ff       	jmpq   400c60 <.plt>

0000000000400e20 <gethostname@plt>:
  400e20:	ff 25 ca 42 20 00    	jmpq   *0x2042ca(%rip)        # 6050f0 <gethostname@GLIBC_2.2.5>
  400e26:	68 1b 00 00 00       	pushq  $0x1b
  400e2b:	e9 30 fe ff ff       	jmpq   400c60 <.plt>

0000000000400e30 <exit@plt>:
  400e30:	ff 25 c2 42 20 00    	jmpq   *0x2042c2(%rip)        # 6050f8 <exit@GLIBC_2.2.5>
  400e36:	68 1c 00 00 00       	pushq  $0x1c
  400e3b:	e9 20 fe ff ff       	jmpq   400c60 <.plt>

0000000000400e40 <connect@plt>:
  400e40:	ff 25 ba 42 20 00    	jmpq   *0x2042ba(%rip)        # 605100 <connect@GLIBC_2.2.5>
  400e46:	68 1d 00 00 00       	pushq  $0x1d
  400e4b:	e9 10 fe ff ff       	jmpq   400c60 <.plt>

0000000000400e50 <__fprintf_chk@plt>:
  400e50:	ff 25 b2 42 20 00    	jmpq   *0x2042b2(%rip)        # 605108 <__fprintf_chk@GLIBC_2.3.4>
  400e56:	68 1e 00 00 00       	pushq  $0x1e
  400e5b:	e9 00 fe ff ff       	jmpq   400c60 <.plt>

0000000000400e60 <__sprintf_chk@plt>:
  400e60:	ff 25 aa 42 20 00    	jmpq   *0x2042aa(%rip)        # 605110 <__sprintf_chk@GLIBC_2.3.4>
  400e66:	68 1f 00 00 00       	pushq  $0x1f
  400e6b:	e9 f0 fd ff ff       	jmpq   400c60 <.plt>

0000000000400e70 <socket@plt>:
  400e70:	ff 25 a2 42 20 00    	jmpq   *0x2042a2(%rip)        # 605118 <socket@GLIBC_2.2.5>
  400e76:	68 20 00 00 00       	pushq  $0x20
  400e7b:	e9 e0 fd ff ff       	jmpq   400c60 <.plt>

Disassembly of section .text:

0000000000400e80 <_start>:
  400e80:	31 ed                	xor    %ebp,%ebp
  400e82:	49 89 d1             	mov    %rdx,%r9
  400e85:	5e                   	pop    %rsi
  400e86:	48 89 e2             	mov    %rsp,%rdx
  400e89:	48 83 e4 f0          	and    $0xfffffffffffffff0,%rsp
  400e8d:	50                   	push   %rax
  400e8e:	54                   	push   %rsp
  400e8f:	49 c7 c0 10 30 40 00 	mov    $0x403010,%r8
  400e96:	48 c7 c1 a0 2f 40 00 	mov    $0x402fa0,%rcx
  400e9d:	48 c7 c7 73 11 40 00 	mov    $0x401173,%rdi
  400ea4:	ff 15 46 41 20 00    	callq  *0x204146(%rip)        # 604ff0 <__libc_start_main@GLIBC_2.2.5>
  400eaa:	f4                   	hlt    
  400eab:	0f 1f 44 00 00       	nopl   0x0(%rax,%rax,1)

0000000000400eb0 <_dl_relocate_static_pie>:
  400eb0:	f3 c3                	repz retq 
  400eb2:	66 2e 0f 1f 84 00 00 	nopw   %cs:0x0(%rax,%rax,1)
  400eb9:	00 00 00 
  400ebc:	0f 1f 40 00          	nopl   0x0(%rax)

0000000000400ec0 <deregister_tm_clones>:
  400ec0:	55                   	push   %rbp
  400ec1:	b8 90 54 60 00       	mov    $0x605490,%eax
  400ec6:	48 3d 90 54 60 00    	cmp    $0x605490,%rax
  400ecc:	48 89 e5             	mov    %rsp,%rbp
  400ecf:	74 17                	je     400ee8 <deregister_tm_clones+0x28>
  400ed1:	b8 00 00 00 00       	mov    $0x0,%eax
  400ed6:	48 85 c0             	test   %rax,%rax
  400ed9:	74 0d                	je     400ee8 <deregister_tm_clones+0x28>
  400edb:	5d                   	pop    %rbp
  400edc:	bf 90 54 60 00       	mov    $0x605490,%edi
  400ee1:	ff e0                	jmpq   *%rax
  400ee3:	0f 1f 44 00 00       	nopl   0x0(%rax,%rax,1)
  400ee8:	5d                   	pop    %rbp
  400ee9:	c3                   	retq   
  400eea:	66 0f 1f 44 00 00    	nopw   0x0(%rax,%rax,1)

0000000000400ef0 <register_tm_clones>:
  400ef0:	be 90 54 60 00       	mov    $0x605490,%esi
  400ef5:	55                   	push   %rbp
  400ef6:	48 81 ee 90 54 60 00 	sub    $0x605490,%rsi
  400efd:	48 89 e5             	mov    %rsp,%rbp
  400f00:	48 c1 fe 03          	sar    $0x3,%rsi
  400f04:	48 89 f0             	mov    %rsi,%rax
  400f07:	48 c1 e8 3f          	shr    $0x3f,%rax
  400f0b:	48 01 c6             	add    %rax,%rsi
  400f0e:	48 d1 fe             	sar    %rsi
  400f11:	74 15                	je     400f28 <register_tm_clones+0x38>
  400f13:	b8 00 00 00 00       	mov    $0x0,%eax
  400f18:	48 85 c0             	test   %rax,%rax
  400f1b:	74 0b                	je     400f28 <register_tm_clones+0x38>
  400f1d:	5d                   	pop    %rbp
  400f1e:	bf 90 54 60 00       	mov    $0x605490,%edi
  400f23:	ff e0                	jmpq   *%rax
  400f25:	0f 1f 00             	nopl   (%rax)
  400f28:	5d                   	pop    %rbp
  400f29:	c3                   	retq   
  400f2a:	66 0f 1f 44 00 00    	nopw   0x0(%rax,%rax,1)

0000000000400f30 <__do_global_dtors_aux>:
  400f30:	80 3d 91 45 20 00 00 	cmpb   $0x0,0x204591(%rip)        # 6054c8 <completed.7698>
  400f37:	75 17                	jne    400f50 <__do_global_dtors_aux+0x20>
  400f39:	55                   	push   %rbp
  400f3a:	48 89 e5             	mov    %rsp,%rbp
  400f3d:	e8 7e ff ff ff       	callq  400ec0 <deregister_tm_clones>
  400f42:	c6 05 7f 45 20 00 01 	movb   $0x1,0x20457f(%rip)        # 6054c8 <completed.7698>
  400f49:	5d                   	pop    %rbp
  400f4a:	c3                   	retq   
  400f4b:	0f 1f 44 00 00       	nopl   0x0(%rax,%rax,1)
  400f50:	f3 c3                	repz retq 
  400f52:	0f 1f 40 00          	nopl   0x0(%rax)
  400f56:	66 2e 0f 1f 84 00 00 	nopw   %cs:0x0(%rax,%rax,1)
  400f5d:	00 00 00 

0000000000400f60 <frame_dummy>:
  400f60:	55                   	push   %rbp
  400f61:	48 89 e5             	mov    %rsp,%rbp
  400f64:	5d                   	pop    %rbp
  400f65:	eb 89                	jmp    400ef0 <register_tm_clones>

0000000000400f67 <usage>:
  400f67:	48 83 ec 08          	sub    $0x8,%rsp
  400f6b:	48 89 fa             	mov    %rdi,%rdx
  400f6e:	83 3d 93 45 20 00 00 	cmpl   $0x0,0x204593(%rip)        # 605508 <is_checker>
  400f75:	74 46                	je     400fbd <usage+0x56>
  400f77:	be 28 30 40 00       	mov    $0x403028,%esi
  400f7c:	bf 01 00 00 00       	mov    $0x1,%edi
  400f81:	b8 00 00 00 00       	mov    $0x0,%eax
  400f86:	e8 55 fe ff ff       	callq  400de0 <__printf_chk@plt>
  400f8b:	bf 60 30 40 00       	mov    $0x403060,%edi
  400f90:	e8 2b fd ff ff       	callq  400cc0 <puts@plt>
  400f95:	bf d8 31 40 00       	mov    $0x4031d8,%edi
  400f9a:	e8 21 fd ff ff       	callq  400cc0 <puts@plt>
  400f9f:	bf 88 30 40 00       	mov    $0x403088,%edi
  400fa4:	e8 17 fd ff ff       	callq  400cc0 <puts@plt>
  400fa9:	bf f2 31 40 00       	mov    $0x4031f2,%edi
  400fae:	e8 0d fd ff ff       	callq  400cc0 <puts@plt>
  400fb3:	bf 00 00 00 00       	mov    $0x0,%edi
  400fb8:	e8 73 fe ff ff       	callq  400e30 <exit@plt>
  400fbd:	be 0e 32 40 00       	mov    $0x40320e,%esi
  400fc2:	bf 01 00 00 00       	mov    $0x1,%edi
  400fc7:	b8 00 00 00 00       	mov    $0x0,%eax
  400fcc:	e8 0f fe ff ff       	callq  400de0 <__printf_chk@plt>
  400fd1:	bf b0 30 40 00       	mov    $0x4030b0,%edi
  400fd6:	e8 e5 fc ff ff       	callq  400cc0 <puts@plt>
  400fdb:	bf d8 30 40 00       	mov    $0x4030d8,%edi
  400fe0:	e8 db fc ff ff       	callq  400cc0 <puts@plt>
  400fe5:	bf 2c 32 40 00       	mov    $0x40322c,%edi
  400fea:	e8 d1 fc ff ff       	callq  400cc0 <puts@plt>
  400fef:	eb c2                	jmp    400fb3 <usage+0x4c>

0000000000400ff1 <initialize_target>:
  400ff1:	55                   	push   %rbp
  400ff2:	53                   	push   %rbx
  400ff3:	48 81 ec 18 21 00 00 	sub    $0x2118,%rsp
  400ffa:	89 f5                	mov    %esi,%ebp
  400ffc:	64 48 8b 04 25 28 00 	mov    %fs:0x28,%rax
  401003:	00 00 
  401005:	48 89 84 24 08 21 00 	mov    %rax,0x2108(%rsp)
  40100c:	00 
  40100d:	31 c0                	xor    %eax,%eax
  40100f:	89 3d e3 44 20 00    	mov    %edi,0x2044e3(%rip)        # 6054f8 <check_level>
  401015:	8b 3d 2d 41 20 00    	mov    0x20412d(%rip),%edi        # 605148 <target_id>
  40101b:	e8 55 1f 00 00       	callq  402f75 <gencookie>
  401020:	89 05 de 44 20 00    	mov    %eax,0x2044de(%rip)        # 605504 <cookie>
  401026:	89 c7                	mov    %eax,%edi
  401028:	e8 48 1f 00 00       	callq  402f75 <gencookie>
  40102d:	89 05 cd 44 20 00    	mov    %eax,0x2044cd(%rip)        # 605500 <authkey>
  401033:	8b 05 0f 41 20 00    	mov    0x20410f(%rip),%eax        # 605148 <target_id>
  401039:	8d 78 01             	lea    0x1(%rax),%edi
  40103c:	e8 4f fc ff ff       	callq  400c90 <srandom@plt>
  401041:	e8 5a fd ff ff       	callq  400da0 <random@plt>
  401046:	89 c7                	mov    %eax,%edi
  401048:	e8 f2 02 00 00       	callq  40133f <scramble>
  40104d:	89 c3                	mov    %eax,%ebx
  40104f:	85 ed                	test   %ebp,%ebp
  401051:	75 54                	jne    4010a7 <initialize_target+0xb6>
  401053:	b8 00 00 00 00       	mov    $0x0,%eax
  401058:	01 d8                	add    %ebx,%eax
  40105a:	0f b7 c0             	movzwl %ax,%eax
  40105d:	8d 04 c5 00 01 00 00 	lea    0x100(,%rax,8),%eax
  401064:	89 c0                	mov    %eax,%eax
  401066:	48 89 05 13 44 20 00 	mov    %rax,0x204413(%rip)        # 605480 <buf_offset>
  40106d:	c6 05 b4 50 20 00 72 	movb   $0x72,0x2050b4(%rip)        # 606128 <target_prefix>
  401074:	83 3d 0d 44 20 00 00 	cmpl   $0x0,0x20440d(%rip)        # 605488 <notify>
  40107b:	74 09                	je     401086 <initialize_target+0x95>
  40107d:	83 3d 84 44 20 00 00 	cmpl   $0x0,0x204484(%rip)        # 605508 <is_checker>
  401084:	74 39                	je     4010bf <initialize_target+0xce>
  401086:	48 8b 84 24 08 21 00 	mov    0x2108(%rsp),%rax
  40108d:	00 
  40108e:	64 48 33 04 25 28 00 	xor    %fs:0x28,%rax
  401095:	00 00 
  401097:	0f 85 d1 00 00 00    	jne    40116e <initialize_target+0x17d>
  40109d:	48 81 c4 18 21 00 00 	add    $0x2118,%rsp
  4010a4:	5b                   	pop    %rbx
  4010a5:	5d                   	pop    %rbp
  4010a6:	c3                   	retq   
  4010a7:	bf 00 00 00 00       	mov    $0x0,%edi
  4010ac:	e8 df fc ff ff       	callq  400d90 <time@plt>
  4010b1:	89 c7                	mov    %eax,%edi
  4010b3:	e8 d8 fb ff ff       	callq  400c90 <srandom@plt>
  4010b8:	e8 e3 fc ff ff       	callq  400da0 <random@plt>
  4010bd:	eb 99                	jmp    401058 <initialize_target+0x67>
  4010bf:	be 00 01 00 00       	mov    $0x100,%esi
  4010c4:	48 89 e7             	mov    %rsp,%rdi
  4010c7:	e8 54 fd ff ff       	callq  400e20 <gethostname@plt>
  4010cc:	89 c5                	mov    %eax,%ebp
  4010ce:	85 c0                	test   %eax,%eax
  4010d0:	75 23                	jne    4010f5 <initialize_target+0x104>
  4010d2:	89 c3                	mov    %eax,%ebx
  4010d4:	48 63 c3             	movslq %ebx,%rax
  4010d7:	48 8b 3c c5 60 51 60 	mov    0x605160(,%rax,8),%rdi
  4010de:	00 
  4010df:	48 85 ff             	test   %rdi,%rdi
  4010e2:	74 2a                	je     40110e <initialize_target+0x11d>
  4010e4:	48 89 e6             	mov    %rsp,%rsi
  4010e7:	e8 84 fb ff ff       	callq  400c70 <strcasecmp@plt>
  4010ec:	85 c0                	test   %eax,%eax
  4010ee:	74 19                	je     401109 <initialize_target+0x118>
  4010f0:	83 c3 01             	add    $0x1,%ebx
  4010f3:	eb df                	jmp    4010d4 <initialize_target+0xe3>
  4010f5:	bf 08 31 40 00       	mov    $0x403108,%edi
  4010fa:	e8 c1 fb ff ff       	callq  400cc0 <puts@plt>
  4010ff:	bf 08 00 00 00       	mov    $0x8,%edi
  401104:	e8 27 fd ff ff       	callq  400e30 <exit@plt>
  401109:	bd 01 00 00 00       	mov    $0x1,%ebp
  40110e:	85 ed                	test   %ebp,%ebp
  401110:	74 3b                	je     40114d <initialize_target+0x15c>
  401112:	48 8d bc 24 00 01 00 	lea    0x100(%rsp),%rdi
  401119:	00 
  40111a:	e8 ab 1b 00 00       	callq  402cca <init_driver>
  40111f:	85 c0                	test   %eax,%eax
  401121:	0f 89 5f ff ff ff    	jns    401086 <initialize_target+0x95>
  401127:	48 8d 94 24 00 01 00 	lea    0x100(%rsp),%rdx
  40112e:	00 
  40112f:	be 80 31 40 00       	mov    $0x403180,%esi
  401134:	bf 01 00 00 00       	mov    $0x1,%edi
  401139:	b8 00 00 00 00       	mov    $0x0,%eax
  40113e:	e8 9d fc ff ff       	callq  400de0 <__printf_chk@plt>
  401143:	bf 08 00 00 00       	mov    $0x8,%edi
  401148:	e8 e3 fc ff ff       	callq  400e30 <exit@plt>
  40114d:	48 89 e2             	mov    %rsp,%rdx
  401150:	be 40 31 40 00       	mov    $0x403140,%esi
  401155:	bf 01 00 00 00       	mov    $0x1,%edi
  40115a:	b8 00 00 00 00       	mov    $0x0,%eax
  40115f:	e8 7c fc ff ff       	callq  400de0 <__printf_chk@plt>
  401164:	bf 08 00 00 00       	mov    $0x8,%edi
  401169:	e8 c2 fc ff ff       	callq  400e30 <exit@plt>
  40116e:	e8 6d fb ff ff       	callq  400ce0 <__stack_chk_fail@plt>

0000000000401173 <main>:
  401173:	41 56                	push   %r14
  401175:	41 55                	push   %r13
  401177:	41 54                	push   %r12
  401179:	55                   	push   %rbp
  40117a:	53                   	push   %rbx
  40117b:	41 89 fc             	mov    %edi,%r12d
  40117e:	48 89 f3             	mov    %rsi,%rbx
  401181:	be 07 20 40 00       	mov    $0x402007,%esi
  401186:	bf 0b 00 00 00       	mov    $0xb,%edi
  40118b:	e8 b0 fb ff ff       	callq  400d40 <signal@plt>
  401190:	be b9 1f 40 00       	mov    $0x401fb9,%esi
  401195:	bf 07 00 00 00       	mov    $0x7,%edi
  40119a:	e8 a1 fb ff ff       	callq  400d40 <signal@plt>
  40119f:	be 55 20 40 00       	mov    $0x402055,%esi
  4011a4:	bf 04 00 00 00       	mov    $0x4,%edi
  4011a9:	e8 92 fb ff ff       	callq  400d40 <signal@plt>
  4011ae:	83 3d 53 43 20 00 00 	cmpl   $0x0,0x204353(%rip)        # 605508 <is_checker>
  4011b5:	75 24                	jne    4011db <main+0x68>
  4011b7:	bd 45 32 40 00       	mov    $0x403245,%ebp
  4011bc:	48 8b 05 dd 42 20 00 	mov    0x2042dd(%rip),%rax        # 6054a0 <stdin@@GLIBC_2.2.5>
  4011c3:	48 89 05 26 43 20 00 	mov    %rax,0x204326(%rip)        # 6054f0 <infile>
  4011ca:	41 bd 00 00 00 00    	mov    $0x0,%r13d
  4011d0:	41 be 00 00 00 00    	mov    $0x0,%r14d
  4011d6:	e9 85 00 00 00       	jmpq   401260 <main+0xed>
  4011db:	be a3 20 40 00       	mov    $0x4020a3,%esi
  4011e0:	bf 0e 00 00 00       	mov    $0xe,%edi
  4011e5:	e8 56 fb ff ff       	callq  400d40 <signal@plt>
  4011ea:	bf 05 00 00 00       	mov    $0x5,%edi
  4011ef:	e8 1c fb ff ff       	callq  400d10 <alarm@plt>
  4011f4:	bd 4a 32 40 00       	mov    $0x40324a,%ebp
  4011f9:	eb c1                	jmp    4011bc <main+0x49>
  4011fb:	48 8b 3b             	mov    (%rbx),%rdi
  4011fe:	e8 64 fd ff ff       	callq  400f67 <usage>
  401203:	be 15 35 40 00       	mov    $0x403515,%esi
  401208:	48 8b 3d 99 42 20 00 	mov    0x204299(%rip),%rdi        # 6054a8 <optarg@@GLIBC_2.2.5>
  40120f:	e8 dc fb ff ff       	callq  400df0 <fopen@plt>
  401214:	48 89 05 d5 42 20 00 	mov    %rax,0x2042d5(%rip)        # 6054f0 <infile>
  40121b:	48 85 c0             	test   %rax,%rax
  40121e:	75 40                	jne    401260 <main+0xed>
  401220:	48 8b 0d 81 42 20 00 	mov    0x204281(%rip),%rcx        # 6054a8 <optarg@@GLIBC_2.2.5>
  401227:	ba 52 32 40 00       	mov    $0x403252,%edx
  40122c:	be 01 00 00 00       	mov    $0x1,%esi
  401231:	48 8b 3d 88 42 20 00 	mov    0x204288(%rip),%rdi        # 6054c0 <stderr@@GLIBC_2.2.5>
  401238:	e8 13 fc ff ff       	callq  400e50 <__fprintf_chk@plt>
  40123d:	b8 01 00 00 00       	mov    $0x1,%eax
  401242:	e9 cc 00 00 00       	jmpq   401313 <main+0x1a0>
  401247:	ba 10 00 00 00       	mov    $0x10,%edx
  40124c:	be 00 00 00 00       	mov    $0x0,%esi
  401251:	48 8b 3d 50 42 20 00 	mov    0x204250(%rip),%rdi        # 6054a8 <optarg@@GLIBC_2.2.5>
  401258:	e8 b3 fb ff ff       	callq  400e10 <strtoul@plt>
  40125d:	41 89 c6             	mov    %eax,%r14d
  401260:	48 89 ea             	mov    %rbp,%rdx
  401263:	48 89 de             	mov    %rbx,%rsi
  401266:	44 89 e7             	mov    %r12d,%edi
  401269:	e8 92 fb ff ff       	callq  400e00 <getopt@plt>
  40126e:	3c ff                	cmp    $0xff,%al
  401270:	74 57                	je     4012c9 <main+0x156>
  401272:	0f be d0             	movsbl %al,%edx
  401275:	83 e8 61             	sub    $0x61,%eax
  401278:	3c 10                	cmp    $0x10,%al
  40127a:	77 31                	ja     4012ad <main+0x13a>
  40127c:	0f b6 c0             	movzbl %al,%eax
  40127f:	ff 24 c5 90 32 40 00 	jmpq   *0x403290(,%rax,8)
  401286:	ba 0a 00 00 00       	mov    $0xa,%edx
  40128b:	be 00 00 00 00       	mov    $0x0,%esi
  401290:	48 8b 3d 11 42 20 00 	mov    0x204211(%rip),%rdi        # 6054a8 <optarg@@GLIBC_2.2.5>
  401297:	e8 d4 fa ff ff       	callq  400d70 <strtol@plt>
  40129c:	41 89 c5             	mov    %eax,%r13d
  40129f:	eb bf                	jmp    401260 <main+0xed>
  4012a1:	c7 05 dd 41 20 00 00 	movl   $0x0,0x2041dd(%rip)        # 605488 <notify>
  4012a8:	00 00 00 
  4012ab:	eb b3                	jmp    401260 <main+0xed>
  4012ad:	be 6f 32 40 00       	mov    $0x40326f,%esi
  4012b2:	bf 01 00 00 00       	mov    $0x1,%edi
  4012b7:	b8 00 00 00 00       	mov    $0x0,%eax
  4012bc:	e8 1f fb ff ff       	callq  400de0 <__printf_chk@plt>
  4012c1:	48 8b 3b             	mov    (%rbx),%rdi
  4012c4:	e8 9e fc ff ff       	callq  400f67 <usage>
  4012c9:	be 01 00 00 00       	mov    $0x1,%esi
  4012ce:	44 89 ef             	mov    %r13d,%edi
  4012d1:	e8 1b fd ff ff       	callq  400ff1 <initialize_target>
  4012d6:	83 3d 2b 42 20 00 00 	cmpl   $0x0,0x20422b(%rip)        # 605508 <is_checker>
  4012dd:	74 09                	je     4012e8 <main+0x175>
  4012df:	44 39 35 1a 42 20 00 	cmp    %r14d,0x20421a(%rip)        # 605500 <authkey>
  4012e6:	75 34                	jne    40131c <main+0x1a9>
  4012e8:	8b 15 16 42 20 00    	mov    0x204216(%rip),%edx        # 605504 <cookie>
  4012ee:	be 82 32 40 00       	mov    $0x403282,%esi
  4012f3:	bf 01 00 00 00       	mov    $0x1,%edi
  4012f8:	b8 00 00 00 00       	mov    $0x0,%eax
  4012fd:	e8 de fa ff ff       	callq  400de0 <__printf_chk@plt>
  401302:	48 8b 3d 77 41 20 00 	mov    0x204177(%rip),%rdi        # 605480 <buf_offset>
  401309:	e8 e8 0d 00 00       	callq  4020f6 <launch>
  40130e:	b8 00 00 00 00       	mov    $0x0,%eax
  401313:	5b                   	pop    %rbx
  401314:	5d                   	pop    %rbp
  401315:	41 5c                	pop    %r12
  401317:	41 5d                	pop    %r13
  401319:	41 5e                	pop    %r14
  40131b:	c3                   	retq   
  40131c:	44 89 f2             	mov    %r14d,%edx
  40131f:	be a8 31 40 00       	mov    $0x4031a8,%esi
  401324:	bf 01 00 00 00       	mov    $0x1,%edi
  401329:	b8 00 00 00 00       	mov    $0x0,%eax
  40132e:	e8 ad fa ff ff       	callq  400de0 <__printf_chk@plt>
  401333:	b8 00 00 00 00       	mov    $0x0,%eax
  401338:	e8 05 09 00 00       	callq  401c42 <check_fail>
  40133d:	eb a9                	jmp    4012e8 <main+0x175>

000000000040133f <scramble>:
  40133f:	48 83 ec 38          	sub    $0x38,%rsp
  401343:	64 48 8b 04 25 28 00 	mov    %fs:0x28,%rax
  40134a:	00 00 
  40134c:	48 89 44 24 28       	mov    %rax,0x28(%rsp)
  401351:	31 c0                	xor    %eax,%eax
  401353:	eb 10                	jmp    401365 <scramble+0x26>
  401355:	69 d0 fd ed 00 00    	imul   $0xedfd,%eax,%edx
  40135b:	01 fa                	add    %edi,%edx
  40135d:	89 c1                	mov    %eax,%ecx
  40135f:	89 14 8c             	mov    %edx,(%rsp,%rcx,4)
  401362:	83 c0 01             	add    $0x1,%eax
  401365:	83 f8 09             	cmp    $0x9,%eax
  401368:	76 eb                	jbe    401355 <scramble+0x16>
  40136a:	8b 44 24 08          	mov    0x8(%rsp),%eax
  40136e:	69 c0 89 aa 00 00    	imul   $0xaa89,%eax,%eax
  401374:	89 44 24 08          	mov    %eax,0x8(%rsp)
  401378:	8b 44 24 0c          	mov    0xc(%rsp),%eax
  40137c:	69 c0 c3 bf 00 00    	imul   $0xbfc3,%eax,%eax
  401382:	89 44 24 0c          	mov    %eax,0xc(%rsp)
  401386:	8b 44 24 0c          	mov    0xc(%rsp),%eax
  40138a:	69 c0 77 1b 00 00    	imul   $0x1b77,%eax,%eax
  401390:	89 44 24 0c          	mov    %eax,0xc(%rsp)
  401394:	8b 44 24 20          	mov    0x20(%rsp),%eax
  401398:	69 c0 af b2 00 00    	imul   $0xb2af,%eax,%eax
  40139e:	89 44 24 20          	mov    %eax,0x20(%rsp)
  4013a2:	8b 44 24 14          	mov    0x14(%rsp),%eax
  4013a6:	69 c0 8d 31 00 00    	imul   $0x318d,%eax,%eax
  4013ac:	89 44 24 14          	mov    %eax,0x14(%rsp)
  4013b0:	8b 44 24 04          	mov    0x4(%rsp),%eax
  4013b4:	69 c0 4f 12 00 00    	imul   $0x124f,%eax,%eax
  4013ba:	89 44 24 04          	mov    %eax,0x4(%rsp)
  4013be:	8b 44 24 08          	mov    0x8(%rsp),%eax
  4013c2:	69 c0 24 4e 00 00    	imul   $0x4e24,%eax,%eax
  4013c8:	89 44 24 08          	mov    %eax,0x8(%rsp)
  4013cc:	8b 44 24 10          	mov    0x10(%rsp),%eax
  4013d0:	69 c0 8d 3b 00 00    	imul   $0x3b8d,%eax,%eax
  4013d6:	89 44 24 10          	mov    %eax,0x10(%rsp)
  4013da:	8b 44 24 0c          	mov    0xc(%rsp),%eax
  4013de:	69 c0 fd 53 00 00    	imul   $0x53fd,%eax,%eax
  4013e4:	89 44 24 0c          	mov    %eax,0xc(%rsp)
  4013e8:	8b 44 24 10          	mov    0x10(%rsp),%eax
  4013ec:	69 c0 2f a9 00 00    	imul   $0xa92f,%eax,%eax
  4013f2:	89 44 24 10          	mov    %eax,0x10(%rsp)
  4013f6:	8b 44 24 10          	mov    0x10(%rsp),%eax
  4013fa:	69 c0 a5 1c 00 00    	imul   $0x1ca5,%eax,%eax
  401400:	89 44 24 10          	mov    %eax,0x10(%rsp)
  401404:	8b 44 24 14          	mov    0x14(%rsp),%eax
  401408:	69 c0 7e 8a 00 00    	imul   $0x8a7e,%eax,%eax
  40140e:	89 44 24 14          	mov    %eax,0x14(%rsp)
  401412:	8b 44 24 08          	mov    0x8(%rsp),%eax
  401416:	69 c0 1c 46 00 00    	imul   $0x461c,%eax,%eax
  40141c:	89 44 24 08          	mov    %eax,0x8(%rsp)
  401420:	8b 04 24             	mov    (%rsp),%eax
  401423:	69 c0 93 93 00 00    	imul   $0x9393,%eax,%eax
  401429:	89 04 24             	mov    %eax,(%rsp)
  40142c:	8b 44 24 20          	mov    0x20(%rsp),%eax
  401430:	69 c0 64 16 00 00    	imul   $0x1664,%eax,%eax
  401436:	89 44 24 20          	mov    %eax,0x20(%rsp)
  40143a:	8b 44 24 1c          	mov    0x1c(%rsp),%eax
  40143e:	69 c0 01 a5 00 00    	imul   $0xa501,%eax,%eax
  401444:	89 44 24 1c          	mov    %eax,0x1c(%rsp)
  401448:	8b 44 24 10          	mov    0x10(%rsp),%eax
  40144c:	69 c0 5c 6e 00 00    	imul   $0x6e5c,%eax,%eax
  401452:	89 44 24 10          	mov    %eax,0x10(%rsp)
  401456:	8b 44 24 20          	mov    0x20(%rsp),%eax
  40145a:	69 c0 8d f9 00 00    	imul   $0xf98d,%eax,%eax
  401460:	89 44 24 20          	mov    %eax,0x20(%rsp)
  401464:	8b 44 24 10          	mov    0x10(%rsp),%eax
  401468:	69 c0 a3 0d 00 00    	imul   $0xda3,%eax,%eax
  40146e:	89 44 24 10          	mov    %eax,0x10(%rsp)
  401472:	8b 44 24 20          	mov    0x20(%rsp),%eax
  401476:	69 c0 44 28 00 00    	imul   $0x2844,%eax,%eax
  40147c:	89 44 24 20          	mov    %eax,0x20(%rsp)
  401480:	8b 44 24 24          	mov    0x24(%rsp),%eax
  401484:	69 c0 25 cb 00 00    	imul   $0xcb25,%eax,%eax
  40148a:	89 44 24 24          	mov    %eax,0x24(%rsp)
  40148e:	8b 44 24 24          	mov    0x24(%rsp),%eax
  401492:	69 c0 a0 47 00 00    	imul   $0x47a0,%eax,%eax
  401498:	89 44 24 24          	mov    %eax,0x24(%rsp)
  40149c:	8b 44 24 04          	mov    0x4(%rsp),%eax
  4014a0:	69 c0 15 42 00 00    	imul   $0x4215,%eax,%eax
  4014a6:	89 44 24 04          	mov    %eax,0x4(%rsp)
  4014aa:	8b 44 24 08          	mov    0x8(%rsp),%eax
  4014ae:	69 c0 72 aa 00 00    	imul   $0xaa72,%eax,%eax
  4014b4:	89 44 24 08          	mov    %eax,0x8(%rsp)
  4014b8:	8b 44 24 0c          	mov    0xc(%rsp),%eax
  4014bc:	69 c0 6a d4 00 00    	imul   $0xd46a,%eax,%eax
  4014c2:	89 44 24 0c          	mov    %eax,0xc(%rsp)
  4014c6:	8b 44 24 1c          	mov    0x1c(%rsp),%eax
  4014ca:	69 c0 55 3d 00 00    	imul   $0x3d55,%eax,%eax
  4014d0:	89 44 24 1c          	mov    %eax,0x1c(%rsp)
  4014d4:	8b 44 24 14          	mov    0x14(%rsp),%eax
  4014d8:	69 c0 87 43 00 00    	imul   $0x4387,%eax,%eax
  4014de:	89 44 24 14          	mov    %eax,0x14(%rsp)
  4014e2:	8b 44 24 1c          	mov    0x1c(%rsp),%eax
  4014e6:	69 c0 0c 74 00 00    	imul   $0x740c,%eax,%eax
  4014ec:	89 44 24 1c          	mov    %eax,0x1c(%rsp)
  4014f0:	8b 44 24 18          	mov    0x18(%rsp),%eax
  4014f4:	69 c0 9b 73 00 00    	imul   $0x739b,%eax,%eax
  4014fa:	89 44 24 18          	mov    %eax,0x18(%rsp)
  4014fe:	8b 44 24 1c          	mov    0x1c(%rsp),%eax
  401502:	69 c0 a7 40 00 00    	imul   $0x40a7,%eax,%eax
  401508:	89 44 24 1c          	mov    %eax,0x1c(%rsp)
  40150c:	8b 44 24 14          	mov    0x14(%rsp),%eax
  401510:	69 c0 b0 0f 00 00    	imul   $0xfb0,%eax,%eax
  401516:	89 44 24 14          	mov    %eax,0x14(%rsp)
  40151a:	8b 44 24 18          	mov    0x18(%rsp),%eax
  40151e:	69 c0 ed 4a 00 00    	imul   $0x4aed,%eax,%eax
  401524:	89 44 24 18          	mov    %eax,0x18(%rsp)
  401528:	8b 44 24 18          	mov    0x18(%rsp),%eax
  40152c:	69 c0 6d 4a 00 00    	imul   $0x4a6d,%eax,%eax
  401532:	89 44 24 18          	mov    %eax,0x18(%rsp)
  401536:	8b 44 24 04          	mov    0x4(%rsp),%eax
  40153a:	69 c0 e0 07 00 00    	imul   $0x7e0,%eax,%eax
  401540:	89 44 24 04          	mov    %eax,0x4(%rsp)
  401544:	8b 44 24 1c          	mov    0x1c(%rsp),%eax
  401548:	69 c0 b6 f0 00 00    	imul   $0xf0b6,%eax,%eax
  40154e:	89 44 24 1c          	mov    %eax,0x1c(%rsp)
  401552:	8b 44 24 10          	mov    0x10(%rsp),%eax
  401556:	69 c0 41 97 00 00    	imul   $0x9741,%eax,%eax
  40155c:	89 44 24 10          	mov    %eax,0x10(%rsp)
  401560:	8b 44 24 0c          	mov    0xc(%rsp),%eax
  401564:	69 c0 b8 6a 00 00    	imul   $0x6ab8,%eax,%eax
  40156a:	89 44 24 0c          	mov    %eax,0xc(%rsp)
  40156e:	8b 44 24 20          	mov    0x20(%rsp),%eax
  401572:	69 c0 25 d5 00 00    	imul   $0xd525,%eax,%eax
  401578:	89 44 24 20          	mov    %eax,0x20(%rsp)
  40157c:	8b 44 24 04          	mov    0x4(%rsp),%eax
  401580:	69 c0 0e 62 00 00    	imul   $0x620e,%eax,%eax
  401586:	89 44 24 04          	mov    %eax,0x4(%rsp)
  40158a:	8b 44 24 0c          	mov    0xc(%rsp),%eax
  40158e:	69 c0 e0 42 00 00    	imul   $0x42e0,%eax,%eax
  401594:	89 44 24 0c          	mov    %eax,0xc(%rsp)
  401598:	8b 44 24 04          	mov    0x4(%rsp),%eax
  40159c:	69 c0 38 d3 00 00    	imul   $0xd338,%eax,%eax
  4015a2:	89 44 24 04          	mov    %eax,0x4(%rsp)
  4015a6:	8b 44 24 18          	mov    0x18(%rsp),%eax
  4015aa:	69 c0 88 27 00 00    	imul   $0x2788,%eax,%eax
  4015b0:	89 44 24 18          	mov    %eax,0x18(%rsp)
  4015b4:	8b 44 24 14          	mov    0x14(%rsp),%eax
  4015b8:	69 c0 09 48 00 00    	imul   $0x4809,%eax,%eax
  4015be:	89 44 24 14          	mov    %eax,0x14(%rsp)
  4015c2:	8b 44 24 18          	mov    0x18(%rsp),%eax
  4015c6:	69 c0 63 a0 00 00    	imul   $0xa063,%eax,%eax
  4015cc:	89 44 24 18          	mov    %eax,0x18(%rsp)
  4015d0:	8b 44 24 0c          	mov    0xc(%rsp),%eax
  4015d4:	69 c0 35 a3 00 00    	imul   $0xa335,%eax,%eax
  4015da:	89 44 24 0c          	mov    %eax,0xc(%rsp)
  4015de:	8b 44 24 1c          	mov    0x1c(%rsp),%eax
  4015e2:	69 c0 a4 45 00 00    	imul   $0x45a4,%eax,%eax
  4015e8:	89 44 24 1c          	mov    %eax,0x1c(%rsp)
  4015ec:	8b 44 24 0c          	mov    0xc(%rsp),%eax
  4015f0:	69 c0 b4 c6 00 00    	imul   $0xc6b4,%eax,%eax
  4015f6:	89 44 24 0c          	mov    %eax,0xc(%rsp)
  4015fa:	8b 44 24 24          	mov    0x24(%rsp),%eax
  4015fe:	69 c0 f1 30 00 00    	imul   $0x30f1,%eax,%eax
  401604:	89 44 24 24          	mov    %eax,0x24(%rsp)
  401608:	8b 44 24 08          	mov    0x8(%rsp),%eax
  40160c:	69 c0 0b d5 00 00    	imul   $0xd50b,%eax,%eax
  401612:	89 44 24 08          	mov    %eax,0x8(%rsp)
  401616:	8b 44 24 0c          	mov    0xc(%rsp),%eax
  40161a:	69 c0 32 69 00 00    	imul   $0x6932,%eax,%eax
  401620:	89 44 24 0c          	mov    %eax,0xc(%rsp)
  401624:	8b 44 24 10          	mov    0x10(%rsp),%eax
  401628:	69 c0 f7 68 00 00    	imul   $0x68f7,%eax,%eax
  40162e:	89 44 24 10          	mov    %eax,0x10(%rsp)
  401632:	8b 44 24 14          	mov    0x14(%rsp),%eax
  401636:	69 c0 9d 81 00 00    	imul   $0x819d,%eax,%eax
  40163c:	89 44 24 14          	mov    %eax,0x14(%rsp)
  401640:	8b 44 24 0c          	mov    0xc(%rsp),%eax
  401644:	69 c0 55 df 00 00    	imul   $0xdf55,%eax,%eax
  40164a:	89 44 24 0c          	mov    %eax,0xc(%rsp)
  40164e:	8b 44 24 18          	mov    0x18(%rsp),%eax
  401652:	69 c0 7d 80 00 00    	imul   $0x807d,%eax,%eax
  401658:	89 44 24 18          	mov    %eax,0x18(%rsp)
  40165c:	8b 44 24 20          	mov    0x20(%rsp),%eax
  401660:	69 c0 5a d6 00 00    	imul   $0xd65a,%eax,%eax
  401666:	89 44 24 20          	mov    %eax,0x20(%rsp)
  40166a:	8b 44 24 0c          	mov    0xc(%rsp),%eax
  40166e:	69 c0 dd 77 00 00    	imul   $0x77dd,%eax,%eax
  401674:	89 44 24 0c          	mov    %eax,0xc(%rsp)
  401678:	8b 44 24 04          	mov    0x4(%rsp),%eax
  40167c:	69 c0 93 43 00 00    	imul   $0x4393,%eax,%eax
  401682:	89 44 24 04          	mov    %eax,0x4(%rsp)
  401686:	8b 44 24 20          	mov    0x20(%rsp),%eax
  40168a:	69 c0 53 c0 00 00    	imul   $0xc053,%eax,%eax
  401690:	89 44 24 20          	mov    %eax,0x20(%rsp)
  401694:	8b 44 24 10          	mov    0x10(%rsp),%eax
  401698:	69 c0 fa 3a 00 00    	imul   $0x3afa,%eax,%eax
  40169e:	89 44 24 10          	mov    %eax,0x10(%rsp)
  4016a2:	8b 44 24 24          	mov    0x24(%rsp),%eax
  4016a6:	69 c0 41 47 00 00    	imul   $0x4741,%eax,%eax
  4016ac:	89 44 24 24          	mov    %eax,0x24(%rsp)
  4016b0:	8b 44 24 0c          	mov    0xc(%rsp),%eax
  4016b4:	69 c0 c1 41 00 00    	imul   $0x41c1,%eax,%eax
  4016ba:	89 44 24 0c          	mov    %eax,0xc(%rsp)
  4016be:	8b 44 24 1c          	mov    0x1c(%rsp),%eax
  4016c2:	69 c0 14 91 00 00    	imul   $0x9114,%eax,%eax
  4016c8:	89 44 24 1c          	mov    %eax,0x1c(%rsp)
  4016cc:	8b 44 24 08          	mov    0x8(%rsp),%eax
  4016d0:	69 c0 76 1d 00 00    	imul   $0x1d76,%eax,%eax
  4016d6:	89 44 24 08          	mov    %eax,0x8(%rsp)
  4016da:	8b 44 24 24          	mov    0x24(%rsp),%eax
  4016de:	69 c0 97 19 00 00    	imul   $0x1997,%eax,%eax
  4016e4:	89 44 24 24          	mov    %eax,0x24(%rsp)
  4016e8:	8b 44 24 04          	mov    0x4(%rsp),%eax
  4016ec:	69 c0 d8 fa 00 00    	imul   $0xfad8,%eax,%eax
  4016f2:	89 44 24 04          	mov    %eax,0x4(%rsp)
  4016f6:	8b 44 24 0c          	mov    0xc(%rsp),%eax
  4016fa:	69 c0 42 b8 00 00    	imul   $0xb842,%eax,%eax
  401700:	89 44 24 0c          	mov    %eax,0xc(%rsp)
  401704:	8b 44 24 08          	mov    0x8(%rsp),%eax
  401708:	69 c0 3d 83 00 00    	imul   $0x833d,%eax,%eax
  40170e:	89 44 24 08          	mov    %eax,0x8(%rsp)
  401712:	8b 44 24 24          	mov    0x24(%rsp),%eax
  401716:	69 c0 7e 37 00 00    	imul   $0x377e,%eax,%eax
  40171c:	89 44 24 24          	mov    %eax,0x24(%rsp)
  401720:	8b 44 24 18          	mov    0x18(%rsp),%eax
  401724:	69 c0 a3 90 00 00    	imul   $0x90a3,%eax,%eax
  40172a:	89 44 24 18          	mov    %eax,0x18(%rsp)
  40172e:	8b 44 24 14          	mov    0x14(%rsp),%eax
  401732:	69 c0 f7 a3 00 00    	imul   $0xa3f7,%eax,%eax
  401738:	89 44 24 14          	mov    %eax,0x14(%rsp)
  40173c:	8b 44 24 20          	mov    0x20(%rsp),%eax
  401740:	69 c0 5a 7b 00 00    	imul   $0x7b5a,%eax,%eax
  401746:	89 44 24 20          	mov    %eax,0x20(%rsp)
  40174a:	8b 44 24 0c          	mov    0xc(%rsp),%eax
  40174e:	69 c0 90 10 00 00    	imul   $0x1090,%eax,%eax
  401754:	89 44 24 0c          	mov    %eax,0xc(%rsp)
  401758:	8b 44 24 24          	mov    0x24(%rsp),%eax
  40175c:	69 c0 39 bb 00 00    	imul   $0xbb39,%eax,%eax
  401762:	89 44 24 24          	mov    %eax,0x24(%rsp)
  401766:	8b 44 24 20          	mov    0x20(%rsp),%eax
  40176a:	69 c0 8a 4a 00 00    	imul   $0x4a8a,%eax,%eax
  401770:	89 44 24 20          	mov    %eax,0x20(%rsp)
  401774:	8b 44 24 04          	mov    0x4(%rsp),%eax
  401778:	69 c0 9a 31 00 00    	imul   $0x319a,%eax,%eax
  40177e:	89 44 24 04          	mov    %eax,0x4(%rsp)
  401782:	8b 44 24 14          	mov    0x14(%rsp),%eax
  401786:	69 c0 63 d4 00 00    	imul   $0xd463,%eax,%eax
  40178c:	89 44 24 14          	mov    %eax,0x14(%rsp)
  401790:	8b 44 24 18          	mov    0x18(%rsp),%eax
  401794:	69 c0 b0 1e 00 00    	imul   $0x1eb0,%eax,%eax
  40179a:	89 44 24 18          	mov    %eax,0x18(%rsp)
  40179e:	8b 44 24 10          	mov    0x10(%rsp),%eax
  4017a2:	69 c0 d1 7b 00 00    	imul   $0x7bd1,%eax,%eax
  4017a8:	89 44 24 10          	mov    %eax,0x10(%rsp)
  4017ac:	8b 44 24 10          	mov    0x10(%rsp),%eax
  4017b0:	69 c0 7e 27 00 00    	imul   $0x277e,%eax,%eax
  4017b6:	89 44 24 10          	mov    %eax,0x10(%rsp)
  4017ba:	8b 44 24 10          	mov    0x10(%rsp),%eax
  4017be:	69 c0 a7 2e 00 00    	imul   $0x2ea7,%eax,%eax
  4017c4:	89 44 24 10          	mov    %eax,0x10(%rsp)
  4017c8:	8b 44 24 24          	mov    0x24(%rsp),%eax
  4017cc:	69 c0 31 18 00 00    	imul   $0x1831,%eax,%eax
  4017d2:	89 44 24 24          	mov    %eax,0x24(%rsp)
  4017d6:	8b 44 24 14          	mov    0x14(%rsp),%eax
  4017da:	69 c0 25 86 00 00    	imul   $0x8625,%eax,%eax
  4017e0:	89 44 24 14          	mov    %eax,0x14(%rsp)
  4017e4:	8b 44 24 1c          	mov    0x1c(%rsp),%eax
  4017e8:	69 c0 c9 20 00 00    	imul   $0x20c9,%eax,%eax
  4017ee:	89 44 24 1c          	mov    %eax,0x1c(%rsp)
  4017f2:	8b 04 24             	mov    (%rsp),%eax
  4017f5:	69 c0 02 fe 00 00    	imul   $0xfe02,%eax,%eax
  4017fb:	89 04 24             	mov    %eax,(%rsp)
  4017fe:	8b 44 24 0c          	mov    0xc(%rsp),%eax
  401802:	69 c0 9f 75 00 00    	imul   $0x759f,%eax,%eax
  401808:	89 44 24 0c          	mov    %eax,0xc(%rsp)
  40180c:	8b 44 24 24          	mov    0x24(%rsp),%eax
  401810:	69 c0 6a 18 00 00    	imul   $0x186a,%eax,%eax
  401816:	89 44 24 24          	mov    %eax,0x24(%rsp)
  40181a:	8b 44 24 20          	mov    0x20(%rsp),%eax
  40181e:	69 c0 cd bd 00 00    	imul   $0xbdcd,%eax,%eax
  401824:	89 44 24 20          	mov    %eax,0x20(%rsp)
  401828:	8b 44 24 10          	mov    0x10(%rsp),%eax
  40182c:	69 c0 e7 af 00 00    	imul   $0xafe7,%eax,%eax
  401832:	89 44 24 10          	mov    %eax,0x10(%rsp)
  401836:	8b 44 24 24          	mov    0x24(%rsp),%eax
  40183a:	69 c0 de f9 00 00    	imul   $0xf9de,%eax,%eax
  401840:	89 44 24 24          	mov    %eax,0x24(%rsp)
  401844:	8b 44 24 18          	mov    0x18(%rsp),%eax
  401848:	69 c0 3a 6f 00 00    	imul   $0x6f3a,%eax,%eax
  40184e:	89 44 24 18          	mov    %eax,0x18(%rsp)
  401852:	8b 44 24 08          	mov    0x8(%rsp),%eax
  401856:	69 c0 3c 8c 00 00    	imul   $0x8c3c,%eax,%eax
  40185c:	89 44 24 08          	mov    %eax,0x8(%rsp)
  401860:	8b 44 24 20          	mov    0x20(%rsp),%eax
  401864:	69 c0 d3 9e 00 00    	imul   $0x9ed3,%eax,%eax
  40186a:	89 44 24 20          	mov    %eax,0x20(%rsp)
  40186e:	8b 44 24 18          	mov    0x18(%rsp),%eax
  401872:	69 c0 16 a9 00 00    	imul   $0xa916,%eax,%eax
  401878:	89 44 24 18          	mov    %eax,0x18(%rsp)
  40187c:	8b 04 24             	mov    (%rsp),%eax
  40187f:	69 c0 12 e7 00 00    	imul   $0xe712,%eax,%eax
  401885:	89 04 24             	mov    %eax,(%rsp)
  401888:	8b 44 24 24          	mov    0x24(%rsp),%eax
  40188c:	69 c0 0c b0 00 00    	imul   $0xb00c,%eax,%eax
  401892:	89 44 24 24          	mov    %eax,0x24(%rsp)
  401896:	ba 00 00 00 00       	mov    $0x0,%edx
  40189b:	b8 00 00 00 00       	mov    $0x0,%eax
  4018a0:	eb 0a                	jmp    4018ac <scramble+0x56d>
  4018a2:	89 d1                	mov    %edx,%ecx
  4018a4:	8b 0c 8c             	mov    (%rsp,%rcx,4),%ecx
  4018a7:	01 c8                	add    %ecx,%eax
  4018a9:	83 c2 01             	add    $0x1,%edx
  4018ac:	83 fa 09             	cmp    $0x9,%edx
  4018af:	76 f1                	jbe    4018a2 <scramble+0x563>
  4018b1:	48 8b 74 24 28       	mov    0x28(%rsp),%rsi
  4018b6:	64 48 33 34 25 28 00 	xor    %fs:0x28,%rsi
  4018bd:	00 00 
  4018bf:	75 05                	jne    4018c6 <scramble+0x587>
  4018c1:	48 83 c4 38          	add    $0x38,%rsp
  4018c5:	c3                   	retq   
  4018c6:	e8 15 f4 ff ff       	callq  400ce0 <__stack_chk_fail@plt>

00000000004018cb <getbuf>:
  4018cb:	48 83 ec 18          	sub    $0x18,%rsp
  4018cf:	48 89 e7             	mov    %rsp,%rdi
  4018d2:	e8 a0 03 00 00       	callq  401c77 <Gets>
  4018d7:	b8 01 00 00 00       	mov    $0x1,%eax
  4018dc:	48 83 c4 18          	add    $0x18,%rsp
  4018e0:	c3                   	retq   

00000000004018e1 <touch1>:
  4018e1:	48 83 ec 08          	sub    $0x8,%rsp
  4018e5:	c7 05 0d 3c 20 00 01 	movl   $0x1,0x203c0d(%rip)        # 6054fc <vlevel>
  4018ec:	00 00 00 
  4018ef:	bf 6a 33 40 00       	mov    $0x40336a,%edi
  4018f4:	e8 c7 f3 ff ff       	callq  400cc0 <puts@plt>
  4018f9:	bf 01 00 00 00       	mov    $0x1,%edi
  4018fe:	e8 c9 05 00 00       	callq  401ecc <validate>
  401903:	bf 00 00 00 00       	mov    $0x0,%edi
  401908:	e8 23 f5 ff ff       	callq  400e30 <exit@plt>

000000000040190d <touch2>:
  40190d:	48 83 ec 08          	sub    $0x8,%rsp
  401911:	89 fa                	mov    %edi,%edx
  401913:	c7 05 df 3b 20 00 02 	movl   $0x2,0x203bdf(%rip)        # 6054fc <vlevel>
  40191a:	00 00 00 
  40191d:	39 3d e1 3b 20 00    	cmp    %edi,0x203be1(%rip)        # 605504 <cookie>
  401923:	74 28                	je     40194d <touch2+0x40>
  401925:	be b8 33 40 00       	mov    $0x4033b8,%esi
  40192a:	bf 01 00 00 00       	mov    $0x1,%edi
  40192f:	b8 00 00 00 00       	mov    $0x0,%eax
  401934:	e8 a7 f4 ff ff       	callq  400de0 <__printf_chk@plt>
  401939:	bf 02 00 00 00       	mov    $0x2,%edi
  40193e:	e8 4e 06 00 00       	callq  401f91 <fail>
  401943:	bf 00 00 00 00       	mov    $0x0,%edi
  401948:	e8 e3 f4 ff ff       	callq  400e30 <exit@plt>
  40194d:	be 90 33 40 00       	mov    $0x403390,%esi
  401952:	bf 01 00 00 00       	mov    $0x1,%edi
  401957:	b8 00 00 00 00       	mov    $0x0,%eax
  40195c:	e8 7f f4 ff ff       	callq  400de0 <__printf_chk@plt>
  401961:	bf 02 00 00 00       	mov    $0x2,%edi
  401966:	e8 61 05 00 00       	callq  401ecc <validate>
  40196b:	eb d6                	jmp    401943 <touch2+0x36>

000000000040196d <hexmatch>:
  40196d:	41 54                	push   %r12
  40196f:	55                   	push   %rbp
  401970:	53                   	push   %rbx
  401971:	48 83 c4 80          	add    $0xffffffffffffff80,%rsp
  401975:	89 fd                	mov    %edi,%ebp
  401977:	48 89 f3             	mov    %rsi,%rbx
  40197a:	64 48 8b 04 25 28 00 	mov    %fs:0x28,%rax
  401981:	00 00 
  401983:	48 89 44 24 78       	mov    %rax,0x78(%rsp)
  401988:	31 c0                	xor    %eax,%eax
  40198a:	e8 11 f4 ff ff       	callq  400da0 <random@plt>
  40198f:	48 89 c1             	mov    %rax,%rcx
  401992:	48 ba 0b d7 a3 70 3d 	movabs $0xa3d70a3d70a3d70b,%rdx
  401999:	0a d7 a3 
  40199c:	48 f7 ea             	imul   %rdx
  40199f:	48 01 ca             	add    %rcx,%rdx
  4019a2:	48 c1 fa 06          	sar    $0x6,%rdx
  4019a6:	48 89 c8             	mov    %rcx,%rax
  4019a9:	48 c1 f8 3f          	sar    $0x3f,%rax
  4019ad:	48 29 c2             	sub    %rax,%rdx
  4019b0:	48 8d 04 92          	lea    (%rdx,%rdx,4),%rax
  4019b4:	48 8d 14 80          	lea    (%rax,%rax,4),%rdx
  4019b8:	48 8d 04 95 00 00 00 	lea    0x0(,%rdx,4),%rax
  4019bf:	00 
  4019c0:	48 29 c1             	sub    %rax,%rcx
  4019c3:	4c 8d 24 0c          	lea    (%rsp,%rcx,1),%r12
  4019c7:	41 89 e8             	mov    %ebp,%r8d
  4019ca:	b9 87 33 40 00       	mov    $0x403387,%ecx
  4019cf:	48 c7 c2 ff ff ff ff 	mov    $0xffffffffffffffff,%rdx
  4019d6:	be 01 00 00 00       	mov    $0x1,%esi
  4019db:	4c 89 e7             	mov    %r12,%rdi
  4019de:	b8 00 00 00 00       	mov    $0x0,%eax
  4019e3:	e8 78 f4 ff ff       	callq  400e60 <__sprintf_chk@plt>
  4019e8:	ba 09 00 00 00       	mov    $0x9,%edx
  4019ed:	4c 89 e6             	mov    %r12,%rsi
  4019f0:	48 89 df             	mov    %rbx,%rdi
  4019f3:	e8 a8 f2 ff ff       	callq  400ca0 <strncmp@plt>
  4019f8:	85 c0                	test   %eax,%eax
  4019fa:	0f 94 c0             	sete   %al
  4019fd:	48 8b 5c 24 78       	mov    0x78(%rsp),%rbx
  401a02:	64 48 33 1c 25 28 00 	xor    %fs:0x28,%rbx
  401a09:	00 00 
  401a0b:	75 0c                	jne    401a19 <hexmatch+0xac>
  401a0d:	0f b6 c0             	movzbl %al,%eax
  401a10:	48 83 ec 80          	sub    $0xffffffffffffff80,%rsp
  401a14:	5b                   	pop    %rbx
  401a15:	5d                   	pop    %rbp
  401a16:	41 5c                	pop    %r12
  401a18:	c3                   	retq   
  401a19:	e8 c2 f2 ff ff       	callq  400ce0 <__stack_chk_fail@plt>

0000000000401a1e <touch3>:
  401a1e:	53                   	push   %rbx
  401a1f:	48 89 fb             	mov    %rdi,%rbx
  401a22:	c7 05 d0 3a 20 00 03 	movl   $0x3,0x203ad0(%rip)        # 6054fc <vlevel>
  401a29:	00 00 00 
  401a2c:	48 89 fe             	mov    %rdi,%rsi
  401a2f:	8b 3d cf 3a 20 00    	mov    0x203acf(%rip),%edi        # 605504 <cookie>
  401a35:	e8 33 ff ff ff       	callq  40196d <hexmatch>
  401a3a:	85 c0                	test   %eax,%eax
  401a3c:	74 2b                	je     401a69 <touch3+0x4b>
  401a3e:	48 89 da             	mov    %rbx,%rdx
  401a41:	be e0 33 40 00       	mov    $0x4033e0,%esi
  401a46:	bf 01 00 00 00       	mov    $0x1,%edi
  401a4b:	b8 00 00 00 00       	mov    $0x0,%eax
  401a50:	e8 8b f3 ff ff       	callq  400de0 <__printf_chk@plt>
  401a55:	bf 03 00 00 00       	mov    $0x3,%edi
  401a5a:	e8 6d 04 00 00       	callq  401ecc <validate>
  401a5f:	bf 00 00 00 00       	mov    $0x0,%edi
  401a64:	e8 c7 f3 ff ff       	callq  400e30 <exit@plt>
  401a69:	48 89 da             	mov    %rbx,%rdx
  401a6c:	be 08 34 40 00       	mov    $0x403408,%esi
  401a71:	bf 01 00 00 00       	mov    $0x1,%edi
  401a76:	b8 00 00 00 00       	mov    $0x0,%eax
  401a7b:	e8 60 f3 ff ff       	callq  400de0 <__printf_chk@plt>
  401a80:	bf 03 00 00 00       	mov    $0x3,%edi
  401a85:	e8 07 05 00 00       	callq  401f91 <fail>
  401a8a:	eb d3                	jmp    401a5f <touch3+0x41>

0000000000401a8c <test>:
  401a8c:	48 83 ec 08          	sub    $0x8,%rsp
  401a90:	b8 00 00 00 00       	mov    $0x0,%eax
  401a95:	e8 31 fe ff ff       	callq  4018cb <getbuf>
  401a9a:	89 c2                	mov    %eax,%edx
  401a9c:	be 30 34 40 00       	mov    $0x403430,%esi
  401aa1:	bf 01 00 00 00       	mov    $0x1,%edi
  401aa6:	b8 00 00 00 00       	mov    $0x0,%eax
  401aab:	e8 30 f3 ff ff       	callq  400de0 <__printf_chk@plt>
  401ab0:	48 83 c4 08          	add    $0x8,%rsp
  401ab4:	c3                   	retq   

0000000000401ab5 <start_farm>:
  401ab5:	b8 01 00 00 00       	mov    $0x1,%eax
  401aba:	c3                   	retq   

0000000000401abb <getval_280>:
  401abb:	b8 50 87 58 90       	mov    $0x90588750,%eax
  401ac0:	c3                   	retq   

0000000000401ac1 <setval_111>:
  401ac1:	c7 07 48 89 c7 c3    	movl   $0xc3c78948,(%rdi)
  401ac7:	c3                   	retq   

0000000000401ac8 <setval_315>:
  401ac8:	c7 07 48 89 c7 91    	movl   $0x91c78948,(%rdi)
  401ace:	c3                   	retq   

0000000000401acf <addval_168>:
  401acf:	8d 87 01 d8 90 c3    	lea    -0x3c6f27ff(%rdi),%eax
  401ad5:	c3                   	retq   

0000000000401ad6 <getval_230>:
  401ad6:	b8 48 89 c7 c1       	mov    $0xc1c78948,%eax
  401adb:	c3                   	retq   

0000000000401adc <addval_236>:
  401adc:	8d 87 48 89 c7 c3    	lea    -0x3c3876b8(%rdi),%eax
  401ae2:	c3                   	retq   

0000000000401ae3 <getval_317>:
  401ae3:	b8 50 58 90 90       	mov    $0x90905850,%eax
  401ae8:	c3                   	retq   

0000000000401ae9 <setval_277>:
  401ae9:	c7 07 ec 18 90 c3    	movl   $0xc39018ec,(%rdi)
  401aef:	c3                   	retq   

0000000000401af0 <mid_farm>:
  401af0:	b8 01 00 00 00       	mov    $0x1,%eax
  401af5:	c3                   	retq   

0000000000401af6 <add_xy>:
  401af6:	48 8d 04 37          	lea    (%rdi,%rsi,1),%rax
  401afa:	c3                   	retq   

0000000000401afb <setval_183>:
  401afb:	c7 07 48 c9 e0 c3    	movl   $0xc3e0c948,(%rdi)
  401b01:	c3                   	retq   

0000000000401b02 <setval_227>:
  401b02:	c7 07 48 89 e0 90    	movl   $0x90e08948,(%rdi)
  401b08:	c3                   	retq   

0000000000401b09 <getval_117>:
  401b09:	b8 a9 c2 20 c9       	mov    $0xc920c2a9,%eax
  401b0e:	c3                   	retq   

0000000000401b0f <addval_468>:
  401b0f:	8d 87 8d ce 84 d2    	lea    -0x2d7b3173(%rdi),%eax
  401b15:	c3                   	retq   

0000000000401b16 <setval_243>:
  401b16:	c7 07 4c 89 e0 c3    	movl   $0xc3e0894c,(%rdi)
  401b1c:	c3                   	retq   

0000000000401b1d <getval_372>:
  401b1d:	b8 99 c2 84 c0       	mov    $0xc084c299,%eax
  401b22:	c3                   	retq   

0000000000401b23 <setval_265>:
  401b23:	c7 07 81 c2 90 c3    	movl   $0xc390c281,(%rdi)
  401b29:	c3                   	retq   

0000000000401b2a <getval_161>:
  401b2a:	b8 89 ce 18 c0       	mov    $0xc018ce89,%eax
  401b2f:	c3                   	retq   

0000000000401b30 <addval_281>:
  401b30:	8d 87 89 ce 90 c1    	lea    -0x3e6f3177(%rdi),%eax
  401b36:	c3                   	retq   

0000000000401b37 <getval_357>:
  401b37:	b8 89 d1 c4 db       	mov    $0xdbc4d189,%eax
  401b3c:	c3                   	retq   

0000000000401b3d <addval_192>:
  401b3d:	8d 87 89 c2 94 90    	lea    -0x6f6b3d77(%rdi),%eax
  401b43:	c3                   	retq   

0000000000401b44 <setval_342>:
  401b44:	c7 07 89 d1 92 c3    	movl   $0xc392d189,(%rdi)
  401b4a:	c3                   	retq   

0000000000401b4b <addval_289>:
  401b4b:	8d 87 c9 ce 20 c9    	lea    -0x36df3137(%rdi),%eax
  401b51:	c3                   	retq   

0000000000401b52 <addval_276>:
  401b52:	8d 87 89 ce 84 db    	lea    -0x247b3177(%rdi),%eax
  401b58:	c3                   	retq   

0000000000401b59 <addval_328>:
  401b59:	8d 87 48 89 e0 90    	lea    -0x6f1f76b8(%rdi),%eax
  401b5f:	c3                   	retq   

0000000000401b60 <setval_316>:
  401b60:	c7 07 89 ce 18 db    	movl   $0xdb18ce89,(%rdi)
  401b66:	c3                   	retq   

0000000000401b67 <addval_235>:
  401b67:	8d 87 e0 8b c2 c3    	lea    -0x3c3d7420(%rdi),%eax
  401b6d:	c3                   	retq   

0000000000401b6e <getval_283>:
  401b6e:	b8 48 89 e0 91       	mov    $0x91e08948,%eax
  401b73:	c3                   	retq   

0000000000401b74 <getval_162>:
  401b74:	b8 82 89 ce 90       	mov    $0x90ce8982,%eax
  401b79:	c3                   	retq   

0000000000401b7a <addval_199>:
  401b7a:	8d 87 48 89 e0 92    	lea    -0x6d1f76b8(%rdi),%eax
  401b80:	c3                   	retq   

0000000000401b81 <addval_324>:
  401b81:	8d 87 89 d1 18 db    	lea    -0x24e72e77(%rdi),%eax
  401b87:	c3                   	retq   

0000000000401b88 <getval_196>:
  401b88:	b8 89 ce 60 c0       	mov    $0xc060ce89,%eax
  401b8d:	c3                   	retq   

0000000000401b8e <setval_318>:
  401b8e:	c7 07 88 d1 38 c9    	movl   $0xc938d188,(%rdi)
  401b94:	c3                   	retq   

0000000000401b95 <getval_482>:
  401b95:	b8 89 d1 08 db       	mov    $0xdb08d189,%eax
  401b9a:	c3                   	retq   

0000000000401b9b <addval_294>:
  401b9b:	8d 87 48 8b e0 90    	lea    -0x6f1f74b8(%rdi),%eax
  401ba1:	c3                   	retq   

0000000000401ba2 <addval_275>:
  401ba2:	8d 87 99 d1 84 c0    	lea    -0x3f7b2e67(%rdi),%eax
  401ba8:	c3                   	retq   

0000000000401ba9 <addval_237>:
  401ba9:	8d 87 b8 89 c2 90    	lea    -0x6f3d7648(%rdi),%eax
  401baf:	c3                   	retq   

0000000000401bb0 <addval_436>:
  401bb0:	8d 87 89 d1 48 db    	lea    -0x24b72e77(%rdi),%eax
  401bb6:	c3                   	retq   

0000000000401bb7 <setval_433>:
  401bb7:	c7 07 89 c2 38 c9    	movl   $0xc938c289,(%rdi)
  401bbd:	c3                   	retq   

0000000000401bbe <setval_193>:
  401bbe:	c7 07 c9 c2 08 d2    	movl   $0xd208c2c9,(%rdi)
  401bc4:	c3                   	retq   

0000000000401bc5 <getval_473>:
  401bc5:	b8 89 d1 90 c3       	mov    $0xc390d189,%eax
  401bca:	c3                   	retq   

0000000000401bcb <getval_125>:
  401bcb:	b8 48 89 e0 c7       	mov    $0xc7e08948,%eax
  401bd0:	c3                   	retq   

0000000000401bd1 <end_farm>:
  401bd1:	b8 01 00 00 00       	mov    $0x1,%eax
  401bd6:	c3                   	retq   

0000000000401bd7 <save_char>:
  401bd7:	8b 05 47 45 20 00    	mov    0x204547(%rip),%eax        # 606124 <gets_cnt>
  401bdd:	3d ff 03 00 00       	cmp    $0x3ff,%eax
  401be2:	7f 49                	jg     401c2d <save_char+0x56>
  401be4:	89 f9                	mov    %edi,%ecx
  401be6:	c0 e9 04             	shr    $0x4,%cl
  401be9:	8d 14 40             	lea    (%rax,%rax,2),%edx
  401bec:	83 e1 0f             	and    $0xf,%ecx
  401bef:	0f b6 b1 50 37 40 00 	movzbl 0x403750(%rcx),%esi
  401bf6:	48 63 ca             	movslq %edx,%rcx
  401bf9:	40 88 b1 20 55 60 00 	mov    %sil,0x605520(%rcx)
  401c00:	8d 4a 01             	lea    0x1(%rdx),%ecx
  401c03:	83 e7 0f             	and    $0xf,%edi
  401c06:	0f b6 b7 50 37 40 00 	movzbl 0x403750(%rdi),%esi
  401c0d:	48 63 c9             	movslq %ecx,%rcx
  401c10:	40 88 b1 20 55 60 00 	mov    %sil,0x605520(%rcx)
  401c17:	83 c2 02             	add    $0x2,%edx
  401c1a:	48 63 d2             	movslq %edx,%rdx
  401c1d:	c6 82 20 55 60 00 20 	movb   $0x20,0x605520(%rdx)
  401c24:	83 c0 01             	add    $0x1,%eax
  401c27:	89 05 f7 44 20 00    	mov    %eax,0x2044f7(%rip)        # 606124 <gets_cnt>
  401c2d:	f3 c3                	repz retq 

0000000000401c2f <save_term>:
  401c2f:	8b 05 ef 44 20 00    	mov    0x2044ef(%rip),%eax        # 606124 <gets_cnt>
  401c35:	8d 04 40             	lea    (%rax,%rax,2),%eax
  401c38:	48 98                	cltq   
  401c3a:	c6 80 20 55 60 00 00 	movb   $0x0,0x605520(%rax)
  401c41:	c3                   	retq   

0000000000401c42 <check_fail>:
  401c42:	48 83 ec 08          	sub    $0x8,%rsp
  401c46:	0f be 15 db 44 20 00 	movsbl 0x2044db(%rip),%edx        # 606128 <target_prefix>
  401c4d:	41 b8 20 55 60 00    	mov    $0x605520,%r8d
  401c53:	8b 0d 9f 38 20 00    	mov    0x20389f(%rip),%ecx        # 6054f8 <check_level>
  401c59:	be 53 34 40 00       	mov    $0x403453,%esi
  401c5e:	bf 01 00 00 00       	mov    $0x1,%edi
  401c63:	b8 00 00 00 00       	mov    $0x0,%eax
  401c68:	e8 73 f1 ff ff       	callq  400de0 <__printf_chk@plt>
  401c6d:	bf 01 00 00 00       	mov    $0x1,%edi
  401c72:	e8 b9 f1 ff ff       	callq  400e30 <exit@plt>

0000000000401c77 <Gets>:
  401c77:	41 54                	push   %r12
  401c79:	55                   	push   %rbp
  401c7a:	53                   	push   %rbx
  401c7b:	49 89 fc             	mov    %rdi,%r12
  401c7e:	c7 05 9c 44 20 00 00 	movl   $0x0,0x20449c(%rip)        # 606124 <gets_cnt>
  401c85:	00 00 00 
  401c88:	48 89 fb             	mov    %rdi,%rbx
  401c8b:	eb 11                	jmp    401c9e <Gets+0x27>
  401c8d:	48 8d 6b 01          	lea    0x1(%rbx),%rbp
  401c91:	88 03                	mov    %al,(%rbx)
  401c93:	0f b6 f8             	movzbl %al,%edi
  401c96:	e8 3c ff ff ff       	callq  401bd7 <save_char>
  401c9b:	48 89 eb             	mov    %rbp,%rbx
  401c9e:	48 8b 3d 4b 38 20 00 	mov    0x20384b(%rip),%rdi        # 6054f0 <infile>
  401ca5:	e8 06 f1 ff ff       	callq  400db0 <_IO_getc@plt>
  401caa:	83 f8 ff             	cmp    $0xffffffff,%eax
  401cad:	74 05                	je     401cb4 <Gets+0x3d>
  401caf:	83 f8 0a             	cmp    $0xa,%eax
  401cb2:	75 d9                	jne    401c8d <Gets+0x16>
  401cb4:	c6 03 00             	movb   $0x0,(%rbx)
  401cb7:	b8 00 00 00 00       	mov    $0x0,%eax
  401cbc:	e8 6e ff ff ff       	callq  401c2f <save_term>
  401cc1:	4c 89 e0             	mov    %r12,%rax
  401cc4:	5b                   	pop    %rbx
  401cc5:	5d                   	pop    %rbp
  401cc6:	41 5c                	pop    %r12
  401cc8:	c3                   	retq   

0000000000401cc9 <notify_server>:
  401cc9:	55                   	push   %rbp
  401cca:	53                   	push   %rbx
  401ccb:	48 81 ec 18 40 00 00 	sub    $0x4018,%rsp
  401cd2:	64 48 8b 04 25 28 00 	mov    %fs:0x28,%rax
  401cd9:	00 00 
  401cdb:	48 89 84 24 08 40 00 	mov    %rax,0x4008(%rsp)
  401ce2:	00 
  401ce3:	31 c0                	xor    %eax,%eax
  401ce5:	83 3d 1c 38 20 00 00 	cmpl   $0x0,0x20381c(%rip)        # 605508 <is_checker>
  401cec:	0f 85 c9 00 00 00    	jne    401dbb <notify_server+0xf2>
  401cf2:	89 fb                	mov    %edi,%ebx
  401cf4:	8b 05 2a 44 20 00    	mov    0x20442a(%rip),%eax        # 606124 <gets_cnt>
  401cfa:	83 c0 64             	add    $0x64,%eax
  401cfd:	3d 00 20 00 00       	cmp    $0x2000,%eax
  401d02:	0f 8f d4 00 00 00    	jg     401ddc <notify_server+0x113>
  401d08:	0f be 05 19 44 20 00 	movsbl 0x204419(%rip),%eax        # 606128 <target_prefix>
  401d0f:	83 3d 72 37 20 00 00 	cmpl   $0x0,0x203772(%rip)        # 605488 <notify>
  401d16:	0f 84 de 00 00 00    	je     401dfa <notify_server+0x131>
  401d1c:	8b 15 de 37 20 00    	mov    0x2037de(%rip),%edx        # 605500 <authkey>
  401d22:	85 db                	test   %ebx,%ebx
  401d24:	0f 84 da 00 00 00    	je     401e04 <notify_server+0x13b>
  401d2a:	bd 69 34 40 00       	mov    $0x403469,%ebp
  401d2f:	68 20 55 60 00       	pushq  $0x605520
  401d34:	56                   	push   %rsi
  401d35:	50                   	push   %rax
  401d36:	52                   	push   %rdx
  401d37:	49 89 e9             	mov    %rbp,%r9
  401d3a:	44 8b 05 07 34 20 00 	mov    0x203407(%rip),%r8d        # 605148 <target_id>
  401d41:	b9 73 34 40 00       	mov    $0x403473,%ecx
  401d46:	ba 00 20 00 00       	mov    $0x2000,%edx
  401d4b:	be 01 00 00 00       	mov    $0x1,%esi
  401d50:	48 8d 7c 24 20       	lea    0x20(%rsp),%rdi
  401d55:	b8 00 00 00 00       	mov    $0x0,%eax
  401d5a:	e8 01 f1 ff ff       	callq  400e60 <__sprintf_chk@plt>
  401d5f:	48 83 c4 20          	add    $0x20,%rsp
  401d63:	83 3d 1e 37 20 00 00 	cmpl   $0x0,0x20371e(%rip)        # 605488 <notify>
  401d6a:	0f 84 d3 00 00 00    	je     401e43 <notify_server+0x17a>
  401d70:	85 db                	test   %ebx,%ebx
  401d72:	0f 84 bc 00 00 00    	je     401e34 <notify_server+0x16b>
  401d78:	4c 8d 8c 24 00 20 00 	lea    0x2000(%rsp),%r9
  401d7f:	00 
  401d80:	41 b8 00 00 00 00    	mov    $0x0,%r8d
  401d86:	48 89 e1             	mov    %rsp,%rcx
  401d89:	48 8b 15 c0 33 20 00 	mov    0x2033c0(%rip),%rdx        # 605150 <lab>
  401d90:	48 8b 35 c1 33 20 00 	mov    0x2033c1(%rip),%rsi        # 605158 <course>
  401d97:	48 8b 3d a2 33 20 00 	mov    0x2033a2(%rip),%rdi        # 605140 <user_id>
  401d9e:	e8 31 11 00 00       	callq  402ed4 <driver_post>
  401da3:	85 c0                	test   %eax,%eax
  401da5:	78 67                	js     401e0e <notify_server+0x145>
  401da7:	bf b8 35 40 00       	mov    $0x4035b8,%edi
  401dac:	e8 0f ef ff ff       	callq  400cc0 <puts@plt>
  401db1:	bf 9b 34 40 00       	mov    $0x40349b,%edi
  401db6:	e8 05 ef ff ff       	callq  400cc0 <puts@plt>
  401dbb:	48 8b 84 24 08 40 00 	mov    0x4008(%rsp),%rax
  401dc2:	00 
  401dc3:	64 48 33 04 25 28 00 	xor    %fs:0x28,%rax
  401dca:	00 00 
  401dcc:	0f 85 f5 00 00 00    	jne    401ec7 <notify_server+0x1fe>
  401dd2:	48 81 c4 18 40 00 00 	add    $0x4018,%rsp
  401dd9:	5b                   	pop    %rbx
  401dda:	5d                   	pop    %rbp
  401ddb:	c3                   	retq   
  401ddc:	be 88 35 40 00       	mov    $0x403588,%esi
  401de1:	bf 01 00 00 00       	mov    $0x1,%edi
  401de6:	b8 00 00 00 00       	mov    $0x0,%eax
  401deb:	e8 f0 ef ff ff       	callq  400de0 <__printf_chk@plt>
  401df0:	bf 01 00 00 00       	mov    $0x1,%edi
  401df5:	e8 36 f0 ff ff       	callq  400e30 <exit@plt>
  401dfa:	ba ff ff ff ff       	mov    $0xffffffff,%edx
  401dff:	e9 1e ff ff ff       	jmpq   401d22 <notify_server+0x59>
  401e04:	bd 6e 34 40 00       	mov    $0x40346e,%ebp
  401e09:	e9 21 ff ff ff       	jmpq   401d2f <notify_server+0x66>
  401e0e:	48 8d 94 24 00 20 00 	lea    0x2000(%rsp),%rdx
  401e15:	00 
  401e16:	be 8f 34 40 00       	mov    $0x40348f,%esi
  401e1b:	bf 01 00 00 00       	mov    $0x1,%edi
  401e20:	b8 00 00 00 00       	mov    $0x0,%eax
  401e25:	e8 b6 ef ff ff       	callq  400de0 <__printf_chk@plt>
  401e2a:	bf 01 00 00 00       	mov    $0x1,%edi
  401e2f:	e8 fc ef ff ff       	callq  400e30 <exit@plt>
  401e34:	bf a5 34 40 00       	mov    $0x4034a5,%edi
  401e39:	e8 82 ee ff ff       	callq  400cc0 <puts@plt>
  401e3e:	e9 78 ff ff ff       	jmpq   401dbb <notify_server+0xf2>
  401e43:	48 89 ea             	mov    %rbp,%rdx
  401e46:	be f0 35 40 00       	mov    $0x4035f0,%esi
  401e4b:	bf 01 00 00 00       	mov    $0x1,%edi
  401e50:	b8 00 00 00 00       	mov    $0x0,%eax
  401e55:	e8 86 ef ff ff       	callq  400de0 <__printf_chk@plt>
  401e5a:	48 8b 15 df 32 20 00 	mov    0x2032df(%rip),%rdx        # 605140 <user_id>
  401e61:	be ac 34 40 00       	mov    $0x4034ac,%esi
  401e66:	bf 01 00 00 00       	mov    $0x1,%edi
  401e6b:	b8 00 00 00 00       	mov    $0x0,%eax
  401e70:	e8 6b ef ff ff       	callq  400de0 <__printf_chk@plt>
  401e75:	48 8b 15 dc 32 20 00 	mov    0x2032dc(%rip),%rdx        # 605158 <course>
  401e7c:	be b9 34 40 00       	mov    $0x4034b9,%esi
  401e81:	bf 01 00 00 00       	mov    $0x1,%edi
  401e86:	b8 00 00 00 00       	mov    $0x0,%eax
  401e8b:	e8 50 ef ff ff       	callq  400de0 <__printf_chk@plt>
  401e90:	48 8b 15 b9 32 20 00 	mov    0x2032b9(%rip),%rdx        # 605150 <lab>
  401e97:	be c5 34 40 00       	mov    $0x4034c5,%esi
  401e9c:	bf 01 00 00 00       	mov    $0x1,%edi
  401ea1:	b8 00 00 00 00       	mov    $0x0,%eax
  401ea6:	e8 35 ef ff ff       	callq  400de0 <__printf_chk@plt>
  401eab:	48 89 e2             	mov    %rsp,%rdx
  401eae:	be ce 34 40 00       	mov    $0x4034ce,%esi
  401eb3:	bf 01 00 00 00       	mov    $0x1,%edi
  401eb8:	b8 00 00 00 00       	mov    $0x0,%eax
  401ebd:	e8 1e ef ff ff       	callq  400de0 <__printf_chk@plt>
  401ec2:	e9 f4 fe ff ff       	jmpq   401dbb <notify_server+0xf2>
  401ec7:	e8 14 ee ff ff       	callq  400ce0 <__stack_chk_fail@plt>

0000000000401ecc <validate>:
  401ecc:	53                   	push   %rbx
  401ecd:	89 fb                	mov    %edi,%ebx
  401ecf:	83 3d 32 36 20 00 00 	cmpl   $0x0,0x203632(%rip)        # 605508 <is_checker>
  401ed6:	74 6b                	je     401f43 <validate+0x77>
  401ed8:	39 3d 1e 36 20 00    	cmp    %edi,0x20361e(%rip)        # 6054fc <vlevel>
  401ede:	75 2f                	jne    401f0f <validate+0x43>
  401ee0:	8b 15 12 36 20 00    	mov    0x203612(%rip),%edx        # 6054f8 <check_level>
  401ee6:	39 fa                	cmp    %edi,%edx
  401ee8:	75 39                	jne    401f23 <validate+0x57>
  401eea:	0f be 15 37 42 20 00 	movsbl 0x204237(%rip),%edx        # 606128 <target_prefix>
  401ef1:	41 b8 20 55 60 00    	mov    $0x605520,%r8d
  401ef7:	89 f9                	mov    %edi,%ecx
  401ef9:	be f8 34 40 00       	mov    $0x4034f8,%esi
  401efe:	bf 01 00 00 00       	mov    $0x1,%edi
  401f03:	b8 00 00 00 00       	mov    $0x0,%eax
  401f08:	e8 d3 ee ff ff       	callq  400de0 <__printf_chk@plt>
  401f0d:	5b                   	pop    %rbx
  401f0e:	c3                   	retq   
  401f0f:	bf da 34 40 00       	mov    $0x4034da,%edi
  401f14:	e8 a7 ed ff ff       	callq  400cc0 <puts@plt>
  401f19:	b8 00 00 00 00       	mov    $0x0,%eax
  401f1e:	e8 1f fd ff ff       	callq  401c42 <check_fail>
  401f23:	89 f9                	mov    %edi,%ecx
  401f25:	be 18 36 40 00       	mov    $0x403618,%esi
  401f2a:	bf 01 00 00 00       	mov    $0x1,%edi
  401f2f:	b8 00 00 00 00       	mov    $0x0,%eax
  401f34:	e8 a7 ee ff ff       	callq  400de0 <__printf_chk@plt>
  401f39:	b8 00 00 00 00       	mov    $0x0,%eax
  401f3e:	e8 ff fc ff ff       	callq  401c42 <check_fail>
  401f43:	39 3d b3 35 20 00    	cmp    %edi,0x2035b3(%rip)        # 6054fc <vlevel>
  401f49:	74 18                	je     401f63 <validate+0x97>
  401f4b:	bf da 34 40 00       	mov    $0x4034da,%edi
  401f50:	e8 6b ed ff ff       	callq  400cc0 <puts@plt>
  401f55:	89 de                	mov    %ebx,%esi
  401f57:	bf 00 00 00 00       	mov    $0x0,%edi
  401f5c:	e8 68 fd ff ff       	callq  401cc9 <notify_server>
  401f61:	eb aa                	jmp    401f0d <validate+0x41>
  401f63:	0f be 0d be 41 20 00 	movsbl 0x2041be(%rip),%ecx        # 606128 <target_prefix>
  401f6a:	89 fa                	mov    %edi,%edx
  401f6c:	be 40 36 40 00       	mov    $0x403640,%esi
  401f71:	bf 01 00 00 00       	mov    $0x1,%edi
  401f76:	b8 00 00 00 00       	mov    $0x0,%eax
  401f7b:	e8 60 ee ff ff       	callq  400de0 <__printf_chk@plt>
  401f80:	89 de                	mov    %ebx,%esi
  401f82:	bf 01 00 00 00       	mov    $0x1,%edi
  401f87:	e8 3d fd ff ff       	callq  401cc9 <notify_server>
  401f8c:	e9 7c ff ff ff       	jmpq   401f0d <validate+0x41>

0000000000401f91 <fail>:
  401f91:	48 83 ec 08          	sub    $0x8,%rsp
  401f95:	83 3d 6c 35 20 00 00 	cmpl   $0x0,0x20356c(%rip)        # 605508 <is_checker>
  401f9c:	75 11                	jne    401faf <fail+0x1e>
  401f9e:	89 fe                	mov    %edi,%esi
  401fa0:	bf 00 00 00 00       	mov    $0x0,%edi
  401fa5:	e8 1f fd ff ff       	callq  401cc9 <notify_server>
  401faa:	48 83 c4 08          	add    $0x8,%rsp
  401fae:	c3                   	retq   
  401faf:	b8 00 00 00 00       	mov    $0x0,%eax
  401fb4:	e8 89 fc ff ff       	callq  401c42 <check_fail>

0000000000401fb9 <bushandler>:
  401fb9:	48 83 ec 08          	sub    $0x8,%rsp
  401fbd:	83 3d 44 35 20 00 00 	cmpl   $0x0,0x203544(%rip)        # 605508 <is_checker>
  401fc4:	74 14                	je     401fda <bushandler+0x21>
  401fc6:	bf 0d 35 40 00       	mov    $0x40350d,%edi
  401fcb:	e8 f0 ec ff ff       	callq  400cc0 <puts@plt>
  401fd0:	b8 00 00 00 00       	mov    $0x0,%eax
  401fd5:	e8 68 fc ff ff       	callq  401c42 <check_fail>
  401fda:	bf 78 36 40 00       	mov    $0x403678,%edi
  401fdf:	e8 dc ec ff ff       	callq  400cc0 <puts@plt>
  401fe4:	bf 17 35 40 00       	mov    $0x403517,%edi
  401fe9:	e8 d2 ec ff ff       	callq  400cc0 <puts@plt>
  401fee:	be 00 00 00 00       	mov    $0x0,%esi
  401ff3:	bf 00 00 00 00       	mov    $0x0,%edi
  401ff8:	e8 cc fc ff ff       	callq  401cc9 <notify_server>
  401ffd:	bf 01 00 00 00       	mov    $0x1,%edi
  402002:	e8 29 ee ff ff       	callq  400e30 <exit@plt>

0000000000402007 <seghandler>:
  402007:	48 83 ec 08          	sub    $0x8,%rsp
  40200b:	83 3d f6 34 20 00 00 	cmpl   $0x0,0x2034f6(%rip)        # 605508 <is_checker>
  402012:	74 14                	je     402028 <seghandler+0x21>
  402014:	bf 2d 35 40 00       	mov    $0x40352d,%edi
  402019:	e8 a2 ec ff ff       	callq  400cc0 <puts@plt>
  40201e:	b8 00 00 00 00       	mov    $0x0,%eax
  402023:	e8 1a fc ff ff       	callq  401c42 <check_fail>
  402028:	bf 98 36 40 00       	mov    $0x403698,%edi
  40202d:	e8 8e ec ff ff       	callq  400cc0 <puts@plt>
  402032:	bf 17 35 40 00       	mov    $0x403517,%edi
  402037:	e8 84 ec ff ff       	callq  400cc0 <puts@plt>
  40203c:	be 00 00 00 00       	mov    $0x0,%esi
  402041:	bf 00 00 00 00       	mov    $0x0,%edi
  402046:	e8 7e fc ff ff       	callq  401cc9 <notify_server>
  40204b:	bf 01 00 00 00       	mov    $0x1,%edi
  402050:	e8 db ed ff ff       	callq  400e30 <exit@plt>

0000000000402055 <illegalhandler>:
  402055:	48 83 ec 08          	sub    $0x8,%rsp
  402059:	83 3d a8 34 20 00 00 	cmpl   $0x0,0x2034a8(%rip)        # 605508 <is_checker>
  402060:	74 14                	je     402076 <illegalhandler+0x21>
  402062:	bf 40 35 40 00       	mov    $0x403540,%edi
  402067:	e8 54 ec ff ff       	callq  400cc0 <puts@plt>
  40206c:	b8 00 00 00 00       	mov    $0x0,%eax
  402071:	e8 cc fb ff ff       	callq  401c42 <check_fail>
  402076:	bf c0 36 40 00       	mov    $0x4036c0,%edi
  40207b:	e8 40 ec ff ff       	callq  400cc0 <puts@plt>
  402080:	bf 17 35 40 00       	mov    $0x403517,%edi
  402085:	e8 36 ec ff ff       	callq  400cc0 <puts@plt>
  40208a:	be 00 00 00 00       	mov    $0x0,%esi
  40208f:	bf 00 00 00 00       	mov    $0x0,%edi
  402094:	e8 30 fc ff ff       	callq  401cc9 <notify_server>
  402099:	bf 01 00 00 00       	mov    $0x1,%edi
  40209e:	e8 8d ed ff ff       	callq  400e30 <exit@plt>

00000000004020a3 <sigalrmhandler>:
  4020a3:	48 83 ec 08          	sub    $0x8,%rsp
  4020a7:	83 3d 5a 34 20 00 00 	cmpl   $0x0,0x20345a(%rip)        # 605508 <is_checker>
  4020ae:	74 14                	je     4020c4 <sigalrmhandler+0x21>
  4020b0:	bf 54 35 40 00       	mov    $0x403554,%edi
  4020b5:	e8 06 ec ff ff       	callq  400cc0 <puts@plt>
  4020ba:	b8 00 00 00 00       	mov    $0x0,%eax
  4020bf:	e8 7e fb ff ff       	callq  401c42 <check_fail>
  4020c4:	ba 05 00 00 00       	mov    $0x5,%edx
  4020c9:	be f0 36 40 00       	mov    $0x4036f0,%esi
  4020ce:	bf 01 00 00 00       	mov    $0x1,%edi
  4020d3:	b8 00 00 00 00       	mov    $0x0,%eax
  4020d8:	e8 03 ed ff ff       	callq  400de0 <__printf_chk@plt>
  4020dd:	be 00 00 00 00       	mov    $0x0,%esi
  4020e2:	bf 00 00 00 00       	mov    $0x0,%edi
  4020e7:	e8 dd fb ff ff       	callq  401cc9 <notify_server>
  4020ec:	bf 01 00 00 00       	mov    $0x1,%edi
  4020f1:	e8 3a ed ff ff       	callq  400e30 <exit@plt>

00000000004020f6 <launch>:
  4020f6:	55                   	push   %rbp
  4020f7:	48 89 e5             	mov    %rsp,%rbp
  4020fa:	48 83 ec 10          	sub    $0x10,%rsp
  4020fe:	48 89 fa             	mov    %rdi,%rdx
  402101:	64 48 8b 04 25 28 00 	mov    %fs:0x28,%rax
  402108:	00 00 
  40210a:	48 89 45 f8          	mov    %rax,-0x8(%rbp)
  40210e:	31 c0                	xor    %eax,%eax
  402110:	48 8d 47 1e          	lea    0x1e(%rdi),%rax
  402114:	48 83 e0 f0          	and    $0xfffffffffffffff0,%rax
  402118:	48 29 c4             	sub    %rax,%rsp
  40211b:	48 8d 7c 24 0f       	lea    0xf(%rsp),%rdi
  402120:	48 83 e7 f0          	and    $0xfffffffffffffff0,%rdi
  402124:	be f4 00 00 00       	mov    $0xf4,%esi
  402129:	e8 d2 eb ff ff       	callq  400d00 <memset@plt>
  40212e:	48 8b 05 6b 33 20 00 	mov    0x20336b(%rip),%rax        # 6054a0 <stdin@@GLIBC_2.2.5>
  402135:	48 39 05 b4 33 20 00 	cmp    %rax,0x2033b4(%rip)        # 6054f0 <infile>
  40213c:	74 38                	je     402176 <launch+0x80>
  40213e:	c7 05 b4 33 20 00 00 	movl   $0x0,0x2033b4(%rip)        # 6054fc <vlevel>
  402145:	00 00 00 
  402148:	b8 00 00 00 00       	mov    $0x0,%eax
  40214d:	e8 3a f9 ff ff       	callq  401a8c <test>
  402152:	83 3d af 33 20 00 00 	cmpl   $0x0,0x2033af(%rip)        # 605508 <is_checker>
  402159:	75 31                	jne    40218c <launch+0x96>
  40215b:	bf 74 35 40 00       	mov    $0x403574,%edi
  402160:	e8 5b eb ff ff       	callq  400cc0 <puts@plt>
  402165:	48 8b 45 f8          	mov    -0x8(%rbp),%rax
  402169:	64 48 33 04 25 28 00 	xor    %fs:0x28,%rax
  402170:	00 00 
  402172:	75 2c                	jne    4021a0 <launch+0xaa>
  402174:	c9                   	leaveq 
  402175:	c3                   	retq   
  402176:	be 5c 35 40 00       	mov    $0x40355c,%esi
  40217b:	bf 01 00 00 00       	mov    $0x1,%edi
  402180:	b8 00 00 00 00       	mov    $0x0,%eax
  402185:	e8 56 ec ff ff       	callq  400de0 <__printf_chk@plt>
  40218a:	eb b2                	jmp    40213e <launch+0x48>
  40218c:	bf 69 35 40 00       	mov    $0x403569,%edi
  402191:	e8 2a eb ff ff       	callq  400cc0 <puts@plt>
  402196:	b8 00 00 00 00       	mov    $0x0,%eax
  40219b:	e8 a2 fa ff ff       	callq  401c42 <check_fail>
  4021a0:	e8 3b eb ff ff       	callq  400ce0 <__stack_chk_fail@plt>

00000000004021a5 <stable_launch>:
  4021a5:	53                   	push   %rbx
  4021a6:	48 89 3d 3b 33 20 00 	mov    %rdi,0x20333b(%rip)        # 6054e8 <global_offset>
  4021ad:	41 b9 00 00 00 00    	mov    $0x0,%r9d
  4021b3:	41 b8 00 00 00 00    	mov    $0x0,%r8d
  4021b9:	b9 32 01 00 00       	mov    $0x132,%ecx
  4021be:	ba 07 00 00 00       	mov    $0x7,%edx
  4021c3:	be 00 00 10 00       	mov    $0x100000,%esi
  4021c8:	bf 00 60 58 55       	mov    $0x55586000,%edi
  4021cd:	e8 1e eb ff ff       	callq  400cf0 <mmap@plt>
  4021d2:	48 89 c3             	mov    %rax,%rbx
  4021d5:	48 3d 00 60 58 55    	cmp    $0x55586000,%rax
  4021db:	75 43                	jne    402220 <stable_launch+0x7b>
  4021dd:	48 8d 90 f8 ff 0f 00 	lea    0xffff8(%rax),%rdx
  4021e4:	48 89 15 45 3f 20 00 	mov    %rdx,0x203f45(%rip)        # 606130 <stack_top>
  4021eb:	48 89 e0             	mov    %rsp,%rax
  4021ee:	48 89 d4             	mov    %rdx,%rsp
  4021f1:	48 89 c2             	mov    %rax,%rdx
  4021f4:	48 89 15 e5 32 20 00 	mov    %rdx,0x2032e5(%rip)        # 6054e0 <global_save_stack>
  4021fb:	48 8b 3d e6 32 20 00 	mov    0x2032e6(%rip),%rdi        # 6054e8 <global_offset>
  402202:	e8 ef fe ff ff       	callq  4020f6 <launch>
  402207:	48 8b 05 d2 32 20 00 	mov    0x2032d2(%rip),%rax        # 6054e0 <global_save_stack>
  40220e:	48 89 c4             	mov    %rax,%rsp
  402211:	be 00 00 10 00       	mov    $0x100000,%esi
  402216:	48 89 df             	mov    %rbx,%rdi
  402219:	e8 b2 eb ff ff       	callq  400dd0 <munmap@plt>
  40221e:	5b                   	pop    %rbx
  40221f:	c3                   	retq   
  402220:	be 00 00 10 00       	mov    $0x100000,%esi
  402225:	48 89 c7             	mov    %rax,%rdi
  402228:	e8 a3 eb ff ff       	callq  400dd0 <munmap@plt>
  40222d:	b9 00 60 58 55       	mov    $0x55586000,%ecx
  402232:	ba 28 37 40 00       	mov    $0x403728,%edx
  402237:	be 01 00 00 00       	mov    $0x1,%esi
  40223c:	48 8b 3d 7d 32 20 00 	mov    0x20327d(%rip),%rdi        # 6054c0 <stderr@@GLIBC_2.2.5>
  402243:	b8 00 00 00 00       	mov    $0x0,%eax
  402248:	e8 03 ec ff ff       	callq  400e50 <__fprintf_chk@plt>
  40224d:	bf 01 00 00 00       	mov    $0x1,%edi
  402252:	e8 d9 eb ff ff       	callq  400e30 <exit@plt>

0000000000402257 <rio_readinitb>:
  402257:	89 37                	mov    %esi,(%rdi)
  402259:	c7 47 04 00 00 00 00 	movl   $0x0,0x4(%rdi)
  402260:	48 8d 47 10          	lea    0x10(%rdi),%rax
  402264:	48 89 47 08          	mov    %rax,0x8(%rdi)
  402268:	c3                   	retq   

0000000000402269 <sigalrm_handler>:
  402269:	48 83 ec 08          	sub    $0x8,%rsp
  40226d:	b9 00 00 00 00       	mov    $0x0,%ecx
  402272:	ba 60 37 40 00       	mov    $0x403760,%edx
  402277:	be 01 00 00 00       	mov    $0x1,%esi
  40227c:	48 8b 3d 3d 32 20 00 	mov    0x20323d(%rip),%rdi        # 6054c0 <stderr@@GLIBC_2.2.5>
  402283:	b8 00 00 00 00       	mov    $0x0,%eax
  402288:	e8 c3 eb ff ff       	callq  400e50 <__fprintf_chk@plt>
  40228d:	bf 01 00 00 00       	mov    $0x1,%edi
  402292:	e8 99 eb ff ff       	callq  400e30 <exit@plt>

0000000000402297 <rio_writen>:
  402297:	41 55                	push   %r13
  402299:	41 54                	push   %r12
  40229b:	55                   	push   %rbp
  40229c:	53                   	push   %rbx
  40229d:	48 83 ec 08          	sub    $0x8,%rsp
  4022a1:	41 89 fc             	mov    %edi,%r12d
  4022a4:	48 89 f5             	mov    %rsi,%rbp
  4022a7:	49 89 d5             	mov    %rdx,%r13
  4022aa:	48 89 d3             	mov    %rdx,%rbx
  4022ad:	eb 06                	jmp    4022b5 <rio_writen+0x1e>
  4022af:	48 29 c3             	sub    %rax,%rbx
  4022b2:	48 01 c5             	add    %rax,%rbp
  4022b5:	48 85 db             	test   %rbx,%rbx
  4022b8:	74 24                	je     4022de <rio_writen+0x47>
  4022ba:	48 89 da             	mov    %rbx,%rdx
  4022bd:	48 89 ee             	mov    %rbp,%rsi
  4022c0:	44 89 e7             	mov    %r12d,%edi
  4022c3:	e8 08 ea ff ff       	callq  400cd0 <write@plt>
  4022c8:	48 85 c0             	test   %rax,%rax
  4022cb:	7f e2                	jg     4022af <rio_writen+0x18>
  4022cd:	e8 ae e9 ff ff       	callq  400c80 <__errno_location@plt>
  4022d2:	83 38 04             	cmpl   $0x4,(%rax)
  4022d5:	75 15                	jne    4022ec <rio_writen+0x55>
  4022d7:	b8 00 00 00 00       	mov    $0x0,%eax
  4022dc:	eb d1                	jmp    4022af <rio_writen+0x18>
  4022de:	4c 89 e8             	mov    %r13,%rax
  4022e1:	48 83 c4 08          	add    $0x8,%rsp
  4022e5:	5b                   	pop    %rbx
  4022e6:	5d                   	pop    %rbp
  4022e7:	41 5c                	pop    %r12
  4022e9:	41 5d                	pop    %r13
  4022eb:	c3                   	retq   
  4022ec:	48 c7 c0 ff ff ff ff 	mov    $0xffffffffffffffff,%rax
  4022f3:	eb ec                	jmp    4022e1 <rio_writen+0x4a>

00000000004022f5 <rio_read>:
  4022f5:	41 55                	push   %r13
  4022f7:	41 54                	push   %r12
  4022f9:	55                   	push   %rbp
  4022fa:	53                   	push   %rbx
  4022fb:	48 83 ec 08          	sub    $0x8,%rsp
  4022ff:	48 89 fb             	mov    %rdi,%rbx
  402302:	49 89 f5             	mov    %rsi,%r13
  402305:	49 89 d4             	mov    %rdx,%r12
  402308:	eb 0a                	jmp    402314 <rio_read+0x1f>
  40230a:	e8 71 e9 ff ff       	callq  400c80 <__errno_location@plt>
  40230f:	83 38 04             	cmpl   $0x4,(%rax)
  402312:	75 5c                	jne    402370 <rio_read+0x7b>
  402314:	8b 6b 04             	mov    0x4(%rbx),%ebp
  402317:	85 ed                	test   %ebp,%ebp
  402319:	7f 24                	jg     40233f <rio_read+0x4a>
  40231b:	48 8d 6b 10          	lea    0x10(%rbx),%rbp
  40231f:	8b 3b                	mov    (%rbx),%edi
  402321:	ba 00 20 00 00       	mov    $0x2000,%edx
  402326:	48 89 ee             	mov    %rbp,%rsi
  402329:	e8 02 ea ff ff       	callq  400d30 <read@plt>
  40232e:	89 43 04             	mov    %eax,0x4(%rbx)
  402331:	85 c0                	test   %eax,%eax
  402333:	78 d5                	js     40230a <rio_read+0x15>
  402335:	85 c0                	test   %eax,%eax
  402337:	74 40                	je     402379 <rio_read+0x84>
  402339:	48 89 6b 08          	mov    %rbp,0x8(%rbx)
  40233d:	eb d5                	jmp    402314 <rio_read+0x1f>
  40233f:	89 e8                	mov    %ebp,%eax
  402341:	4c 39 e0             	cmp    %r12,%rax
  402344:	72 03                	jb     402349 <rio_read+0x54>
  402346:	44 89 e5             	mov    %r12d,%ebp
  402349:	4c 63 e5             	movslq %ebp,%r12
  40234c:	48 8b 73 08          	mov    0x8(%rbx),%rsi
  402350:	4c 89 e2             	mov    %r12,%rdx
  402353:	4c 89 ef             	mov    %r13,%rdi
  402356:	e8 25 ea ff ff       	callq  400d80 <memcpy@plt>
  40235b:	4c 01 63 08          	add    %r12,0x8(%rbx)
  40235f:	29 6b 04             	sub    %ebp,0x4(%rbx)
  402362:	4c 89 e0             	mov    %r12,%rax
  402365:	48 83 c4 08          	add    $0x8,%rsp
  402369:	5b                   	pop    %rbx
  40236a:	5d                   	pop    %rbp
  40236b:	41 5c                	pop    %r12
  40236d:	41 5d                	pop    %r13
  40236f:	c3                   	retq   
  402370:	48 c7 c0 ff ff ff ff 	mov    $0xffffffffffffffff,%rax
  402377:	eb ec                	jmp    402365 <rio_read+0x70>
  402379:	b8 00 00 00 00       	mov    $0x0,%eax
  40237e:	eb e5                	jmp    402365 <rio_read+0x70>

0000000000402380 <rio_readlineb>:
  402380:	41 55                	push   %r13
  402382:	41 54                	push   %r12
  402384:	55                   	push   %rbp
  402385:	53                   	push   %rbx
  402386:	48 83 ec 18          	sub    $0x18,%rsp
  40238a:	49 89 fd             	mov    %rdi,%r13
  40238d:	48 89 f5             	mov    %rsi,%rbp
  402390:	49 89 d4             	mov    %rdx,%r12
  402393:	64 48 8b 04 25 28 00 	mov    %fs:0x28,%rax
  40239a:	00 00 
  40239c:	48 89 44 24 08       	mov    %rax,0x8(%rsp)
  4023a1:	31 c0                	xor    %eax,%eax
  4023a3:	bb 01 00 00 00       	mov    $0x1,%ebx
  4023a8:	4c 39 e3             	cmp    %r12,%rbx
  4023ab:	73 47                	jae    4023f4 <rio_readlineb+0x74>
  4023ad:	ba 01 00 00 00       	mov    $0x1,%edx
  4023b2:	48 8d 74 24 07       	lea    0x7(%rsp),%rsi
  4023b7:	4c 89 ef             	mov    %r13,%rdi
  4023ba:	e8 36 ff ff ff       	callq  4022f5 <rio_read>
  4023bf:	83 f8 01             	cmp    $0x1,%eax
  4023c2:	75 1c                	jne    4023e0 <rio_readlineb+0x60>
  4023c4:	48 8d 45 01          	lea    0x1(%rbp),%rax
  4023c8:	0f b6 54 24 07       	movzbl 0x7(%rsp),%edx
  4023cd:	88 55 00             	mov    %dl,0x0(%rbp)
  4023d0:	80 7c 24 07 0a       	cmpb   $0xa,0x7(%rsp)
  4023d5:	74 1a                	je     4023f1 <rio_readlineb+0x71>
  4023d7:	48 83 c3 01          	add    $0x1,%rbx
  4023db:	48 89 c5             	mov    %rax,%rbp
  4023de:	eb c8                	jmp    4023a8 <rio_readlineb+0x28>
  4023e0:	85 c0                	test   %eax,%eax
  4023e2:	75 32                	jne    402416 <rio_readlineb+0x96>
  4023e4:	48 83 fb 01          	cmp    $0x1,%rbx
  4023e8:	75 0a                	jne    4023f4 <rio_readlineb+0x74>
  4023ea:	b8 00 00 00 00       	mov    $0x0,%eax
  4023ef:	eb 0a                	jmp    4023fb <rio_readlineb+0x7b>
  4023f1:	48 89 c5             	mov    %rax,%rbp
  4023f4:	c6 45 00 00          	movb   $0x0,0x0(%rbp)
  4023f8:	48 89 d8             	mov    %rbx,%rax
  4023fb:	48 8b 4c 24 08       	mov    0x8(%rsp),%rcx
  402400:	64 48 33 0c 25 28 00 	xor    %fs:0x28,%rcx
  402407:	00 00 
  402409:	75 14                	jne    40241f <rio_readlineb+0x9f>
  40240b:	48 83 c4 18          	add    $0x18,%rsp
  40240f:	5b                   	pop    %rbx
  402410:	5d                   	pop    %rbp
  402411:	41 5c                	pop    %r12
  402413:	41 5d                	pop    %r13
  402415:	c3                   	retq   
  402416:	48 c7 c0 ff ff ff ff 	mov    $0xffffffffffffffff,%rax
  40241d:	eb dc                	jmp    4023fb <rio_readlineb+0x7b>
  40241f:	e8 bc e8 ff ff       	callq  400ce0 <__stack_chk_fail@plt>

0000000000402424 <urlencode>:
  402424:	41 54                	push   %r12
  402426:	55                   	push   %rbp
  402427:	53                   	push   %rbx
  402428:	48 83 ec 10          	sub    $0x10,%rsp
  40242c:	48 89 fb             	mov    %rdi,%rbx
  40242f:	48 89 f5             	mov    %rsi,%rbp
  402432:	64 48 8b 04 25 28 00 	mov    %fs:0x28,%rax
  402439:	00 00 
  40243b:	48 89 44 24 08       	mov    %rax,0x8(%rsp)
  402440:	31 c0                	xor    %eax,%eax
  402442:	48 c7 c1 ff ff ff ff 	mov    $0xffffffffffffffff,%rcx
  402449:	f2 ae                	repnz scas %es:(%rdi),%al
  40244b:	48 89 ce             	mov    %rcx,%rsi
  40244e:	48 f7 d6             	not    %rsi
  402451:	8d 46 ff             	lea    -0x1(%rsi),%eax
  402454:	eb 0f                	jmp    402465 <urlencode+0x41>
  402456:	44 88 45 00          	mov    %r8b,0x0(%rbp)
  40245a:	48 8d 6d 01          	lea    0x1(%rbp),%rbp
  40245e:	48 83 c3 01          	add    $0x1,%rbx
  402462:	44 89 e0             	mov    %r12d,%eax
  402465:	44 8d 60 ff          	lea    -0x1(%rax),%r12d
  402469:	85 c0                	test   %eax,%eax
  40246b:	0f 84 a6 00 00 00    	je     402517 <urlencode+0xf3>
  402471:	44 0f b6 03          	movzbl (%rbx),%r8d
  402475:	41 80 f8 2a          	cmp    $0x2a,%r8b
  402479:	0f 94 c2             	sete   %dl
  40247c:	41 80 f8 2d          	cmp    $0x2d,%r8b
  402480:	0f 94 c0             	sete   %al
  402483:	08 c2                	or     %al,%dl
  402485:	75 cf                	jne    402456 <urlencode+0x32>
  402487:	41 80 f8 2e          	cmp    $0x2e,%r8b
  40248b:	74 c9                	je     402456 <urlencode+0x32>
  40248d:	41 80 f8 5f          	cmp    $0x5f,%r8b
  402491:	74 c3                	je     402456 <urlencode+0x32>
  402493:	41 8d 40 d0          	lea    -0x30(%r8),%eax
  402497:	3c 09                	cmp    $0x9,%al
  402499:	76 bb                	jbe    402456 <urlencode+0x32>
  40249b:	41 8d 40 bf          	lea    -0x41(%r8),%eax
  40249f:	3c 19                	cmp    $0x19,%al
  4024a1:	76 b3                	jbe    402456 <urlencode+0x32>
  4024a3:	41 8d 40 9f          	lea    -0x61(%r8),%eax
  4024a7:	3c 19                	cmp    $0x19,%al
  4024a9:	76 ab                	jbe    402456 <urlencode+0x32>
  4024ab:	41 80 f8 20          	cmp    $0x20,%r8b
  4024af:	74 54                	je     402505 <urlencode+0xe1>
  4024b1:	41 8d 40 e0          	lea    -0x20(%r8),%eax
  4024b5:	3c 5f                	cmp    $0x5f,%al
  4024b7:	0f 96 c2             	setbe  %dl
  4024ba:	41 80 f8 09          	cmp    $0x9,%r8b
  4024be:	0f 94 c0             	sete   %al
  4024c1:	08 c2                	or     %al,%dl
  4024c3:	74 4d                	je     402512 <urlencode+0xee>
  4024c5:	45 0f b6 c0          	movzbl %r8b,%r8d
  4024c9:	b9 f8 37 40 00       	mov    $0x4037f8,%ecx
  4024ce:	ba 08 00 00 00       	mov    $0x8,%edx
  4024d3:	be 01 00 00 00       	mov    $0x1,%esi
  4024d8:	48 89 e7             	mov    %rsp,%rdi
  4024db:	b8 00 00 00 00       	mov    $0x0,%eax
  4024e0:	e8 7b e9 ff ff       	callq  400e60 <__sprintf_chk@plt>
  4024e5:	0f b6 04 24          	movzbl (%rsp),%eax
  4024e9:	88 45 00             	mov    %al,0x0(%rbp)
  4024ec:	0f b6 44 24 01       	movzbl 0x1(%rsp),%eax
  4024f1:	88 45 01             	mov    %al,0x1(%rbp)
  4024f4:	0f b6 44 24 02       	movzbl 0x2(%rsp),%eax
  4024f9:	88 45 02             	mov    %al,0x2(%rbp)
  4024fc:	48 8d 6d 03          	lea    0x3(%rbp),%rbp
  402500:	e9 59 ff ff ff       	jmpq   40245e <urlencode+0x3a>
  402505:	c6 45 00 2b          	movb   $0x2b,0x0(%rbp)
  402509:	48 8d 6d 01          	lea    0x1(%rbp),%rbp
  40250d:	e9 4c ff ff ff       	jmpq   40245e <urlencode+0x3a>
  402512:	b8 ff ff ff ff       	mov    $0xffffffff,%eax
  402517:	48 8b 74 24 08       	mov    0x8(%rsp),%rsi
  40251c:	64 48 33 34 25 28 00 	xor    %fs:0x28,%rsi
  402523:	00 00 
  402525:	75 09                	jne    402530 <urlencode+0x10c>
  402527:	48 83 c4 10          	add    $0x10,%rsp
  40252b:	5b                   	pop    %rbx
  40252c:	5d                   	pop    %rbp
  40252d:	41 5c                	pop    %r12
  40252f:	c3                   	retq   
  402530:	e8 ab e7 ff ff       	callq  400ce0 <__stack_chk_fail@plt>

0000000000402535 <submitr>:
  402535:	41 57                	push   %r15
  402537:	41 56                	push   %r14
  402539:	41 55                	push   %r13
  40253b:	41 54                	push   %r12
  40253d:	55                   	push   %rbp
  40253e:	53                   	push   %rbx
  40253f:	48 81 ec 58 a0 00 00 	sub    $0xa058,%rsp
  402546:	49 89 fc             	mov    %rdi,%r12
  402549:	89 74 24 04          	mov    %esi,0x4(%rsp)
  40254d:	49 89 d7             	mov    %rdx,%r15
  402550:	49 89 ce             	mov    %rcx,%r14
  402553:	4c 89 44 24 08       	mov    %r8,0x8(%rsp)
  402558:	4d 89 cd             	mov    %r9,%r13
  40255b:	48 8b ac 24 90 a0 00 	mov    0xa090(%rsp),%rbp
  402562:	00 
  402563:	64 48 8b 04 25 28 00 	mov    %fs:0x28,%rax
  40256a:	00 00 
  40256c:	48 89 84 24 48 a0 00 	mov    %rax,0xa048(%rsp)
  402573:	00 
  402574:	31 c0                	xor    %eax,%eax
  402576:	c7 44 24 1c 00 00 00 	movl   $0x0,0x1c(%rsp)
  40257d:	00 
  40257e:	ba 00 00 00 00       	mov    $0x0,%edx
  402583:	be 01 00 00 00       	mov    $0x1,%esi
  402588:	bf 02 00 00 00       	mov    $0x2,%edi
  40258d:	e8 de e8 ff ff       	callq  400e70 <socket@plt>
  402592:	85 c0                	test   %eax,%eax
  402594:	0f 88 9b 02 00 00    	js     402835 <submitr+0x300>
  40259a:	89 c3                	mov    %eax,%ebx
  40259c:	4c 89 e7             	mov    %r12,%rdi
  40259f:	e8 ac e7 ff ff       	callq  400d50 <gethostbyname@plt>
  4025a4:	48 85 c0             	test   %rax,%rax
  4025a7:	0f 84 d4 02 00 00    	je     402881 <submitr+0x34c>
  4025ad:	48 c7 44 24 22 00 00 	movq   $0x0,0x22(%rsp)
  4025b4:	00 00 
  4025b6:	c7 44 24 2a 00 00 00 	movl   $0x0,0x2a(%rsp)
  4025bd:	00 
  4025be:	66 c7 44 24 2e 00 00 	movw   $0x0,0x2e(%rsp)
  4025c5:	66 c7 44 24 20 02 00 	movw   $0x2,0x20(%rsp)
  4025cc:	48 63 50 14          	movslq 0x14(%rax),%rdx
  4025d0:	48 8b 40 18          	mov    0x18(%rax),%rax
  4025d4:	48 8b 30             	mov    (%rax),%rsi
  4025d7:	48 8d 7c 24 24       	lea    0x24(%rsp),%rdi
  4025dc:	b9 0c 00 00 00       	mov    $0xc,%ecx
  4025e1:	e8 7a e7 ff ff       	callq  400d60 <__memmove_chk@plt>
  4025e6:	0f b7 44 24 04       	movzwl 0x4(%rsp),%eax
  4025eb:	66 c1 c8 08          	ror    $0x8,%ax
  4025ef:	66 89 44 24 22       	mov    %ax,0x22(%rsp)
  4025f4:	ba 10 00 00 00       	mov    $0x10,%edx
  4025f9:	48 8d 74 24 20       	lea    0x20(%rsp),%rsi
  4025fe:	89 df                	mov    %ebx,%edi
  402600:	e8 3b e8 ff ff       	callq  400e40 <connect@plt>
  402605:	85 c0                	test   %eax,%eax
  402607:	0f 88 dc 02 00 00    	js     4028e9 <submitr+0x3b4>
  40260d:	48 c7 c6 ff ff ff ff 	mov    $0xffffffffffffffff,%rsi
  402614:	b8 00 00 00 00       	mov    $0x0,%eax
  402619:	48 89 f1             	mov    %rsi,%rcx
  40261c:	4c 89 ef             	mov    %r13,%rdi
  40261f:	f2 ae                	repnz scas %es:(%rdi),%al
  402621:	48 89 ca             	mov    %rcx,%rdx
  402624:	48 f7 d2             	not    %rdx
  402627:	48 89 f1             	mov    %rsi,%rcx
  40262a:	4c 89 ff             	mov    %r15,%rdi
  40262d:	f2 ae                	repnz scas %es:(%rdi),%al
  40262f:	48 f7 d1             	not    %rcx
  402632:	49 89 c8             	mov    %rcx,%r8
  402635:	48 89 f1             	mov    %rsi,%rcx
  402638:	4c 89 f7             	mov    %r14,%rdi
  40263b:	f2 ae                	repnz scas %es:(%rdi),%al
  40263d:	48 f7 d1             	not    %rcx
  402640:	4d 8d 44 08 fe       	lea    -0x2(%r8,%rcx,1),%r8
  402645:	48 89 f1             	mov    %rsi,%rcx
  402648:	48 8b 7c 24 08       	mov    0x8(%rsp),%rdi
  40264d:	f2 ae                	repnz scas %es:(%rdi),%al
  40264f:	48 89 c8             	mov    %rcx,%rax
  402652:	48 f7 d0             	not    %rax
  402655:	49 8d 4c 00 ff       	lea    -0x1(%r8,%rax,1),%rcx
  40265a:	48 8d 44 52 fd       	lea    -0x3(%rdx,%rdx,2),%rax
  40265f:	48 8d 84 01 80 00 00 	lea    0x80(%rcx,%rax,1),%rax
  402666:	00 
  402667:	48 3d 00 20 00 00    	cmp    $0x2000,%rax
  40266d:	0f 87 d0 02 00 00    	ja     402943 <submitr+0x40e>
  402673:	48 8d b4 24 40 40 00 	lea    0x4040(%rsp),%rsi
  40267a:	00 
  40267b:	b9 00 04 00 00       	mov    $0x400,%ecx
  402680:	b8 00 00 00 00       	mov    $0x0,%eax
  402685:	48 89 f7             	mov    %rsi,%rdi
  402688:	f3 48 ab             	rep stos %rax,%es:(%rdi)
  40268b:	4c 89 ef             	mov    %r13,%rdi
  40268e:	e8 91 fd ff ff       	callq  402424 <urlencode>
  402693:	85 c0                	test   %eax,%eax
  402695:	0f 88 1b 03 00 00    	js     4029b6 <submitr+0x481>
  40269b:	4c 8d ac 24 40 20 00 	lea    0x2040(%rsp),%r13
  4026a2:	00 
  4026a3:	41 54                	push   %r12
  4026a5:	48 8d 84 24 48 40 00 	lea    0x4048(%rsp),%rax
  4026ac:	00 
  4026ad:	50                   	push   %rax
  4026ae:	4d 89 f9             	mov    %r15,%r9
  4026b1:	4d 89 f0             	mov    %r14,%r8
  4026b4:	b9 88 37 40 00       	mov    $0x403788,%ecx
  4026b9:	ba 00 20 00 00       	mov    $0x2000,%edx
  4026be:	be 01 00 00 00       	mov    $0x1,%esi
  4026c3:	4c 89 ef             	mov    %r13,%rdi
  4026c6:	b8 00 00 00 00       	mov    $0x0,%eax
  4026cb:	e8 90 e7 ff ff       	callq  400e60 <__sprintf_chk@plt>
  4026d0:	48 c7 c1 ff ff ff ff 	mov    $0xffffffffffffffff,%rcx
  4026d7:	b8 00 00 00 00       	mov    $0x0,%eax
  4026dc:	4c 89 ef             	mov    %r13,%rdi
  4026df:	f2 ae                	repnz scas %es:(%rdi),%al
  4026e1:	48 89 ca             	mov    %rcx,%rdx
  4026e4:	48 f7 d2             	not    %rdx
  4026e7:	48 8d 52 ff          	lea    -0x1(%rdx),%rdx
  4026eb:	4c 89 ee             	mov    %r13,%rsi
  4026ee:	89 df                	mov    %ebx,%edi
  4026f0:	e8 a2 fb ff ff       	callq  402297 <rio_writen>
  4026f5:	48 83 c4 10          	add    $0x10,%rsp
  4026f9:	48 85 c0             	test   %rax,%rax
  4026fc:	0f 88 3f 03 00 00    	js     402a41 <submitr+0x50c>
  402702:	89 de                	mov    %ebx,%esi
  402704:	48 8d 7c 24 30       	lea    0x30(%rsp),%rdi
  402709:	e8 49 fb ff ff       	callq  402257 <rio_readinitb>
  40270e:	ba 00 20 00 00       	mov    $0x2000,%edx
  402713:	48 8d b4 24 40 20 00 	lea    0x2040(%rsp),%rsi
  40271a:	00 
  40271b:	48 8d 7c 24 30       	lea    0x30(%rsp),%rdi
  402720:	e8 5b fc ff ff       	callq  402380 <rio_readlineb>
  402725:	48 85 c0             	test   %rax,%rax
  402728:	0f 8e 82 03 00 00    	jle    402ab0 <submitr+0x57b>
  40272e:	4c 8d 84 24 40 80 00 	lea    0x8040(%rsp),%r8
  402735:	00 
  402736:	48 8d 4c 24 1c       	lea    0x1c(%rsp),%rcx
  40273b:	48 8d 94 24 40 60 00 	lea    0x6040(%rsp),%rdx
  402742:	00 
  402743:	be ff 37 40 00       	mov    $0x4037ff,%esi
  402748:	48 8d bc 24 40 20 00 	lea    0x2040(%rsp),%rdi
  40274f:	00 
  402750:	b8 00 00 00 00       	mov    $0x0,%eax
  402755:	e8 66 e6 ff ff       	callq  400dc0 <__isoc99_sscanf@plt>
  40275a:	48 8d b4 24 40 20 00 	lea    0x2040(%rsp),%rsi
  402761:	00 
  402762:	bf 16 38 40 00       	mov    $0x403816,%edi
  402767:	b9 03 00 00 00       	mov    $0x3,%ecx
  40276c:	f3 a6                	repz cmpsb %es:(%rdi),%ds:(%rsi)
  40276e:	0f 97 c0             	seta   %al
  402771:	1c 00                	sbb    $0x0,%al
  402773:	84 c0                	test   %al,%al
  402775:	0f 84 b3 03 00 00    	je     402b2e <submitr+0x5f9>
  40277b:	ba 00 20 00 00       	mov    $0x2000,%edx
  402780:	48 8d b4 24 40 20 00 	lea    0x2040(%rsp),%rsi
  402787:	00 
  402788:	48 8d 7c 24 30       	lea    0x30(%rsp),%rdi
  40278d:	e8 ee fb ff ff       	callq  402380 <rio_readlineb>
  402792:	48 85 c0             	test   %rax,%rax
  402795:	7f c3                	jg     40275a <submitr+0x225>
  402797:	48 b8 45 72 72 6f 72 	movabs $0x43203a726f727245,%rax
  40279e:	3a 20 43 
  4027a1:	48 ba 6c 69 65 6e 74 	movabs $0x6e7520746e65696c,%rdx
  4027a8:	20 75 6e 
  4027ab:	48 89 45 00          	mov    %rax,0x0(%rbp)
  4027af:	48 89 55 08          	mov    %rdx,0x8(%rbp)
  4027b3:	48 b8 61 62 6c 65 20 	movabs $0x206f7420656c6261,%rax
  4027ba:	74 6f 20 
  4027bd:	48 ba 72 65 61 64 20 	movabs $0x6165682064616572,%rdx
  4027c4:	68 65 61 
  4027c7:	48 89 45 10          	mov    %rax,0x10(%rbp)
  4027cb:	48 89 55 18          	mov    %rdx,0x18(%rbp)
  4027cf:	48 b8 64 65 72 73 20 	movabs $0x6f72662073726564,%rax
  4027d6:	66 72 6f 
  4027d9:	48 ba 6d 20 74 68 65 	movabs $0x657220656874206d,%rdx
  4027e0:	20 72 65 
  4027e3:	48 89 45 20          	mov    %rax,0x20(%rbp)
  4027e7:	48 89 55 28          	mov    %rdx,0x28(%rbp)
  4027eb:	48 b8 73 75 6c 74 20 	movabs $0x72657320746c7573,%rax
  4027f2:	73 65 72 
  4027f5:	48 89 45 30          	mov    %rax,0x30(%rbp)
  4027f9:	c7 45 38 76 65 72 00 	movl   $0x726576,0x38(%rbp)
  402800:	89 df                	mov    %ebx,%edi
  402802:	e8 19 e5 ff ff       	callq  400d20 <close@plt>
  402807:	b8 ff ff ff ff       	mov    $0xffffffff,%eax
  40280c:	48 8b 9c 24 48 a0 00 	mov    0xa048(%rsp),%rbx
  402813:	00 
  402814:	64 48 33 1c 25 28 00 	xor    %fs:0x28,%rbx
  40281b:	00 00 
  40281d:	0f 85 76 04 00 00    	jne    402c99 <submitr+0x764>
  402823:	48 81 c4 58 a0 00 00 	add    $0xa058,%rsp
  40282a:	5b                   	pop    %rbx
  40282b:	5d                   	pop    %rbp
  40282c:	41 5c                	pop    %r12
  40282e:	41 5d                	pop    %r13
  402830:	41 5e                	pop    %r14
  402832:	41 5f                	pop    %r15
  402834:	c3                   	retq   
  402835:	48 b8 45 72 72 6f 72 	movabs $0x43203a726f727245,%rax
  40283c:	3a 20 43 
  40283f:	48 ba 6c 69 65 6e 74 	movabs $0x6e7520746e65696c,%rdx
  402846:	20 75 6e 
  402849:	48 89 45 00          	mov    %rax,0x0(%rbp)
  40284d:	48 89 55 08          	mov    %rdx,0x8(%rbp)
  402851:	48 b8 61 62 6c 65 20 	movabs $0x206f7420656c6261,%rax
  402858:	74 6f 20 
  40285b:	48 ba 63 72 65 61 74 	movabs $0x7320657461657263,%rdx
  402862:	65 20 73 
  402865:	48 89 45 10          	mov    %rax,0x10(%rbp)
  402869:	48 89 55 18          	mov    %rdx,0x18(%rbp)
  40286d:	c7 45 20 6f 63 6b 65 	movl   $0x656b636f,0x20(%rbp)
  402874:	66 c7 45 24 74 00    	movw   $0x74,0x24(%rbp)
  40287a:	b8 ff ff ff ff       	mov    $0xffffffff,%eax
  40287f:	eb 8b                	jmp    40280c <submitr+0x2d7>
  402881:	48 b8 45 72 72 6f 72 	movabs $0x44203a726f727245,%rax
  402888:	3a 20 44 
  40288b:	48 ba 4e 53 20 69 73 	movabs $0x6e7520736920534e,%rdx
  402892:	20 75 6e 
  402895:	48 89 45 00          	mov    %rax,0x0(%rbp)
  402899:	48 89 55 08          	mov    %rdx,0x8(%rbp)
  40289d:	48 b8 61 62 6c 65 20 	movabs $0x206f7420656c6261,%rax
  4028a4:	74 6f 20 
  4028a7:	48 ba 72 65 73 6f 6c 	movabs $0x2065766c6f736572,%rdx
  4028ae:	76 65 20 
  4028b1:	48 89 45 10          	mov    %rax,0x10(%rbp)
  4028b5:	48 89 55 18          	mov    %rdx,0x18(%rbp)
  4028b9:	48 b8 73 65 72 76 65 	movabs $0x6120726576726573,%rax
  4028c0:	72 20 61 
  4028c3:	48 89 45 20          	mov    %rax,0x20(%rbp)
  4028c7:	c7 45 28 64 64 72 65 	movl   $0x65726464,0x28(%rbp)
  4028ce:	66 c7 45 2c 73 73    	movw   $0x7373,0x2c(%rbp)
  4028d4:	c6 45 2e 00          	movb   $0x0,0x2e(%rbp)
  4028d8:	89 df                	mov    %ebx,%edi
  4028da:	e8 41 e4 ff ff       	callq  400d20 <close@plt>
  4028df:	b8 ff ff ff ff       	mov    $0xffffffff,%eax
  4028e4:	e9 23 ff ff ff       	jmpq   40280c <submitr+0x2d7>
  4028e9:	48 b8 45 72 72 6f 72 	movabs $0x55203a726f727245,%rax
  4028f0:	3a 20 55 
  4028f3:	48 ba 6e 61 62 6c 65 	movabs $0x6f7420656c62616e,%rdx
  4028fa:	20 74 6f 
  4028fd:	48 89 45 00          	mov    %rax,0x0(%rbp)
  402901:	48 89 55 08          	mov    %rdx,0x8(%rbp)
  402905:	48 b8 20 63 6f 6e 6e 	movabs $0x7463656e6e6f6320,%rax
  40290c:	65 63 74 
  40290f:	48 ba 20 74 6f 20 74 	movabs $0x20656874206f7420,%rdx
  402916:	68 65 20 
  402919:	48 89 45 10          	mov    %rax,0x10(%rbp)
  40291d:	48 89 55 18          	mov    %rdx,0x18(%rbp)
  402921:	c7 45 20 73 65 72 76 	movl   $0x76726573,0x20(%rbp)
  402928:	66 c7 45 24 65 72    	movw   $0x7265,0x24(%rbp)
  40292e:	c6 45 26 00          	movb   $0x0,0x26(%rbp)
  402932:	89 df                	mov    %ebx,%edi
  402934:	e8 e7 e3 ff ff       	callq  400d20 <close@plt>
  402939:	b8 ff ff ff ff       	mov    $0xffffffff,%eax
  40293e:	e9 c9 fe ff ff       	jmpq   40280c <submitr+0x2d7>
  402943:	48 b8 45 72 72 6f 72 	movabs $0x52203a726f727245,%rax
  40294a:	3a 20 52 
  40294d:	48 ba 65 73 75 6c 74 	movabs $0x747320746c757365,%rdx
  402954:	20 73 74 
  402957:	48 89 45 00          	mov    %rax,0x0(%rbp)
  40295b:	48 89 55 08          	mov    %rdx,0x8(%rbp)
  40295f:	48 b8 72 69 6e 67 20 	movabs $0x6f6f7420676e6972,%rax
  402966:	74 6f 6f 
  402969:	48 ba 20 6c 61 72 67 	movabs $0x202e656772616c20,%rdx
  402970:	65 2e 20 
  402973:	48 89 45 10          	mov    %rax,0x10(%rbp)
  402977:	48 89 55 18          	mov    %rdx,0x18(%rbp)
  40297b:	48 b8 49 6e 63 72 65 	movabs $0x6573616572636e49,%rax
  402982:	61 73 65 
  402985:	48 ba 20 53 55 42 4d 	movabs $0x5254494d42555320,%rdx
  40298c:	49 54 52 
  40298f:	48 89 45 20          	mov    %rax,0x20(%rbp)
  402993:	48 89 55 28          	mov    %rdx,0x28(%rbp)
  402997:	48 b8 5f 4d 41 58 42 	movabs $0x46554258414d5f,%rax
  40299e:	55 46 00 
  4029a1:	48 89 45 30          	mov    %rax,0x30(%rbp)
  4029a5:	89 df                	mov    %ebx,%edi
  4029a7:	e8 74 e3 ff ff       	callq  400d20 <close@plt>
  4029ac:	b8 ff ff ff ff       	mov    $0xffffffff,%eax
  4029b1:	e9 56 fe ff ff       	jmpq   40280c <submitr+0x2d7>
  4029b6:	48 b8 45 72 72 6f 72 	movabs $0x52203a726f727245,%rax
  4029bd:	3a 20 52 
  4029c0:	48 ba 65 73 75 6c 74 	movabs $0x747320746c757365,%rdx
  4029c7:	20 73 74 
  4029ca:	48 89 45 00          	mov    %rax,0x0(%rbp)
  4029ce:	48 89 55 08          	mov    %rdx,0x8(%rbp)
  4029d2:	48 b8 72 69 6e 67 20 	movabs $0x6e6f6320676e6972,%rax
  4029d9:	63 6f 6e 
  4029dc:	48 ba 74 61 69 6e 73 	movabs $0x6e6120736e696174,%rdx
  4029e3:	20 61 6e 
  4029e6:	48 89 45 10          	mov    %rax,0x10(%rbp)
  4029ea:	48 89 55 18          	mov    %rdx,0x18(%rbp)
  4029ee:	48 b8 20 69 6c 6c 65 	movabs $0x6c6167656c6c6920,%rax
  4029f5:	67 61 6c 
  4029f8:	48 ba 20 6f 72 20 75 	movabs $0x72706e7520726f20,%rdx
  4029ff:	6e 70 72 
  402a02:	48 89 45 20          	mov    %rax,0x20(%rbp)
  402a06:	48 89 55 28          	mov    %rdx,0x28(%rbp)
  402a0a:	48 b8 69 6e 74 61 62 	movabs $0x20656c6261746e69,%rax
  402a11:	6c 65 20 
  402a14:	48 ba 63 68 61 72 61 	movabs $0x6574636172616863,%rdx
  402a1b:	63 74 65 
  402a1e:	48 89 45 30          	mov    %rax,0x30(%rbp)
  402a22:	48 89 55 38          	mov    %rdx,0x38(%rbp)
  402a26:	66 c7 45 40 72 2e    	movw   $0x2e72,0x40(%rbp)
  402a2c:	c6 45 42 00          	movb   $0x0,0x42(%rbp)
  402a30:	89 df                	mov    %ebx,%edi
  402a32:	e8 e9 e2 ff ff       	callq  400d20 <close@plt>
  402a37:	b8 ff ff ff ff       	mov    $0xffffffff,%eax
  402a3c:	e9 cb fd ff ff       	jmpq   40280c <submitr+0x2d7>
  402a41:	48 b8 45 72 72 6f 72 	movabs $0x43203a726f727245,%rax
  402a48:	3a 20 43 
  402a4b:	48 ba 6c 69 65 6e 74 	movabs $0x6e7520746e65696c,%rdx
  402a52:	20 75 6e 
  402a55:	48 89 45 00          	mov    %rax,0x0(%rbp)
  402a59:	48 89 55 08          	mov    %rdx,0x8(%rbp)
  402a5d:	48 b8 61 62 6c 65 20 	movabs $0x206f7420656c6261,%rax
  402a64:	74 6f 20 
  402a67:	48 ba 77 72 69 74 65 	movabs $0x6f74206574697277,%rdx
  402a6e:	20 74 6f 
  402a71:	48 89 45 10          	mov    %rax,0x10(%rbp)
  402a75:	48 89 55 18          	mov    %rdx,0x18(%rbp)
  402a79:	48 b8 20 74 68 65 20 	movabs $0x7365722065687420,%rax
  402a80:	72 65 73 
  402a83:	48 ba 75 6c 74 20 73 	movabs $0x7672657320746c75,%rdx
  402a8a:	65 72 76 
  402a8d:	48 89 45 20          	mov    %rax,0x20(%rbp)
  402a91:	48 89 55 28          	mov    %rdx,0x28(%rbp)
  402a95:	66 c7 45 30 65 72    	movw   $0x7265,0x30(%rbp)
  402a9b:	c6 45 32 00          	movb   $0x0,0x32(%rbp)
  402a9f:	89 df                	mov    %ebx,%edi
  402aa1:	e8 7a e2 ff ff       	callq  400d20 <close@plt>
  402aa6:	b8 ff ff ff ff       	mov    $0xffffffff,%eax
  402aab:	e9 5c fd ff ff       	jmpq   40280c <submitr+0x2d7>
  402ab0:	48 b8 45 72 72 6f 72 	movabs $0x43203a726f727245,%rax
  402ab7:	3a 20 43 
  402aba:	48 ba 6c 69 65 6e 74 	movabs $0x6e7520746e65696c,%rdx
  402ac1:	20 75 6e 
  402ac4:	48 89 45 00          	mov    %rax,0x0(%rbp)
  402ac8:	48 89 55 08          	mov    %rdx,0x8(%rbp)
  402acc:	48 b8 61 62 6c 65 20 	movabs $0x206f7420656c6261,%rax
  402ad3:	74 6f 20 
  402ad6:	48 ba 72 65 61 64 20 	movabs $0x7269662064616572,%rdx
  402add:	66 69 72 
  402ae0:	48 89 45 10          	mov    %rax,0x10(%rbp)
  402ae4:	48 89 55 18          	mov    %rdx,0x18(%rbp)
  402ae8:	48 b8 73 74 20 68 65 	movabs $0x6564616568207473,%rax
  402aef:	61 64 65 
  402af2:	48 ba 72 20 66 72 6f 	movabs $0x72206d6f72662072,%rdx
  402af9:	6d 20 72 
  402afc:	48 89 45 20          	mov    %rax,0x20(%rbp)
  402b00:	48 89 55 28          	mov    %rdx,0x28(%rbp)
  402b04:	48 b8 65 73 75 6c 74 	movabs $0x657320746c757365,%rax
  402b0b:	20 73 65 
  402b0e:	48 89 45 30          	mov    %rax,0x30(%rbp)
  402b12:	c7 45 38 72 76 65 72 	movl   $0x72657672,0x38(%rbp)
  402b19:	c6 45 3c 00          	movb   $0x0,0x3c(%rbp)
  402b1d:	89 df                	mov    %ebx,%edi
  402b1f:	e8 fc e1 ff ff       	callq  400d20 <close@plt>
  402b24:	b8 ff ff ff ff       	mov    $0xffffffff,%eax
  402b29:	e9 de fc ff ff       	jmpq   40280c <submitr+0x2d7>
  402b2e:	ba 00 20 00 00       	mov    $0x2000,%edx
  402b33:	48 8d b4 24 40 20 00 	lea    0x2040(%rsp),%rsi
  402b3a:	00 
  402b3b:	48 8d 7c 24 30       	lea    0x30(%rsp),%rdi
  402b40:	e8 3b f8 ff ff       	callq  402380 <rio_readlineb>
  402b45:	48 85 c0             	test   %rax,%rax
  402b48:	0f 8e 90 00 00 00    	jle    402bde <submitr+0x6a9>
  402b4e:	44 8b 44 24 1c       	mov    0x1c(%rsp),%r8d
  402b53:	41 81 f8 c8 00 00 00 	cmp    $0xc8,%r8d
  402b5a:	0f 85 02 01 00 00    	jne    402c62 <submitr+0x72d>
  402b60:	48 8d b4 24 40 20 00 	lea    0x2040(%rsp),%rsi
  402b67:	00 
  402b68:	48 89 ef             	mov    %rbp,%rdi
  402b6b:	e8 40 e1 ff ff       	callq  400cb0 <strcpy@plt>
  402b70:	89 df                	mov    %ebx,%edi
  402b72:	e8 a9 e1 ff ff       	callq  400d20 <close@plt>
  402b77:	bf 10 38 40 00       	mov    $0x403810,%edi
  402b7c:	b9 04 00 00 00       	mov    $0x4,%ecx
  402b81:	48 89 ee             	mov    %rbp,%rsi
  402b84:	f3 a6                	repz cmpsb %es:(%rdi),%ds:(%rsi)
  402b86:	0f 97 c0             	seta   %al
  402b89:	1c 00                	sbb    $0x0,%al
  402b8b:	0f be c0             	movsbl %al,%eax
  402b8e:	85 c0                	test   %eax,%eax
  402b90:	0f 84 76 fc ff ff    	je     40280c <submitr+0x2d7>
  402b96:	bf 14 38 40 00       	mov    $0x403814,%edi
  402b9b:	b9 05 00 00 00       	mov    $0x5,%ecx
  402ba0:	48 89 ee             	mov    %rbp,%rsi
  402ba3:	f3 a6                	repz cmpsb %es:(%rdi),%ds:(%rsi)
  402ba5:	0f 97 c0             	seta   %al
  402ba8:	1c 00                	sbb    $0x0,%al
  402baa:	0f be c0             	movsbl %al,%eax
  402bad:	85 c0                	test   %eax,%eax
  402baf:	0f 84 57 fc ff ff    	je     40280c <submitr+0x2d7>
  402bb5:	bf 19 38 40 00       	mov    $0x403819,%edi
  402bba:	b9 03 00 00 00       	mov    $0x3,%ecx
  402bbf:	48 89 ee             	mov    %rbp,%rsi
  402bc2:	f3 a6                	repz cmpsb %es:(%rdi),%ds:(%rsi)
  402bc4:	0f 97 c0             	seta   %al
  402bc7:	1c 00                	sbb    $0x0,%al
  402bc9:	0f be c0             	movsbl %al,%eax
  402bcc:	85 c0                	test   %eax,%eax
  402bce:	0f 84 38 fc ff ff    	je     40280c <submitr+0x2d7>
  402bd4:	b8 ff ff ff ff       	mov    $0xffffffff,%eax
  402bd9:	e9 2e fc ff ff       	jmpq   40280c <submitr+0x2d7>
  402bde:	48 b8 45 72 72 6f 72 	movabs $0x43203a726f727245,%rax
  402be5:	3a 20 43 
  402be8:	48 ba 6c 69 65 6e 74 	movabs $0x6e7520746e65696c,%rdx
  402bef:	20 75 6e 
  402bf2:	48 89 45 00          	mov    %rax,0x0(%rbp)
  402bf6:	48 89 55 08          	mov    %rdx,0x8(%rbp)
  402bfa:	48 b8 61 62 6c 65 20 	movabs $0x206f7420656c6261,%rax
  402c01:	74 6f 20 
  402c04:	48 ba 72 65 61 64 20 	movabs $0x6174732064616572,%rdx
  402c0b:	73 74 61 
  402c0e:	48 89 45 10          	mov    %rax,0x10(%rbp)
  402c12:	48 89 55 18          	mov    %rdx,0x18(%rbp)
  402c16:	48 b8 74 75 73 20 6d 	movabs $0x7373656d20737574,%rax
  402c1d:	65 73 73 
  402c20:	48 ba 61 67 65 20 66 	movabs $0x6d6f726620656761,%rdx
  402c27:	72 6f 6d 
  402c2a:	48 89 45 20          	mov    %rax,0x20(%rbp)
  402c2e:	48 89 55 28          	mov    %rdx,0x28(%rbp)
  402c32:	48 b8 20 72 65 73 75 	movabs $0x20746c7573657220,%rax
  402c39:	6c 74 20 
  402c3c:	48 89 45 30          	mov    %rax,0x30(%rbp)
  402c40:	c7 45 38 73 65 72 76 	movl   $0x76726573,0x38(%rbp)
  402c47:	66 c7 45 3c 65 72    	movw   $0x7265,0x3c(%rbp)
  402c4d:	c6 45 3e 00          	movb   $0x0,0x3e(%rbp)
  402c51:	89 df                	mov    %ebx,%edi
  402c53:	e8 c8 e0 ff ff       	callq  400d20 <close@plt>
  402c58:	b8 ff ff ff ff       	mov    $0xffffffff,%eax
  402c5d:	e9 aa fb ff ff       	jmpq   40280c <submitr+0x2d7>
  402c62:	4c 8d 8c 24 40 80 00 	lea    0x8040(%rsp),%r9
  402c69:	00 
  402c6a:	b9 c8 37 40 00       	mov    $0x4037c8,%ecx
  402c6f:	48 c7 c2 ff ff ff ff 	mov    $0xffffffffffffffff,%rdx
  402c76:	be 01 00 00 00       	mov    $0x1,%esi
  402c7b:	48 89 ef             	mov    %rbp,%rdi
  402c7e:	b8 00 00 00 00       	mov    $0x0,%eax
  402c83:	e8 d8 e1 ff ff       	callq  400e60 <__sprintf_chk@plt>
  402c88:	89 df                	mov    %ebx,%edi
  402c8a:	e8 91 e0 ff ff       	callq  400d20 <close@plt>
  402c8f:	b8 ff ff ff ff       	mov    $0xffffffff,%eax
  402c94:	e9 73 fb ff ff       	jmpq   40280c <submitr+0x2d7>
  402c99:	e8 42 e0 ff ff       	callq  400ce0 <__stack_chk_fail@plt>

0000000000402c9e <init_timeout>:
  402c9e:	85 ff                	test   %edi,%edi
  402ca0:	74 26                	je     402cc8 <init_timeout+0x2a>
  402ca2:	53                   	push   %rbx
  402ca3:	89 fb                	mov    %edi,%ebx
  402ca5:	85 ff                	test   %edi,%edi
  402ca7:	78 18                	js     402cc1 <init_timeout+0x23>
  402ca9:	be 69 22 40 00       	mov    $0x402269,%esi
  402cae:	bf 0e 00 00 00       	mov    $0xe,%edi
  402cb3:	e8 88 e0 ff ff       	callq  400d40 <signal@plt>
  402cb8:	89 df                	mov    %ebx,%edi
  402cba:	e8 51 e0 ff ff       	callq  400d10 <alarm@plt>
  402cbf:	5b                   	pop    %rbx
  402cc0:	c3                   	retq   
  402cc1:	bb 00 00 00 00       	mov    $0x0,%ebx
  402cc6:	eb e1                	jmp    402ca9 <init_timeout+0xb>
  402cc8:	f3 c3                	repz retq 

0000000000402cca <init_driver>:
  402cca:	55                   	push   %rbp
  402ccb:	53                   	push   %rbx
  402ccc:	48 83 ec 28          	sub    $0x28,%rsp
  402cd0:	48 89 fd             	mov    %rdi,%rbp
  402cd3:	64 48 8b 04 25 28 00 	mov    %fs:0x28,%rax
  402cda:	00 00 
  402cdc:	48 89 44 24 18       	mov    %rax,0x18(%rsp)
  402ce1:	31 c0                	xor    %eax,%eax
  402ce3:	be 01 00 00 00       	mov    $0x1,%esi
  402ce8:	bf 0d 00 00 00       	mov    $0xd,%edi
  402ced:	e8 4e e0 ff ff       	callq  400d40 <signal@plt>
  402cf2:	be 01 00 00 00       	mov    $0x1,%esi
  402cf7:	bf 1d 00 00 00       	mov    $0x1d,%edi
  402cfc:	e8 3f e0 ff ff       	callq  400d40 <signal@plt>
  402d01:	be 01 00 00 00       	mov    $0x1,%esi
  402d06:	bf 1d 00 00 00       	mov    $0x1d,%edi
  402d0b:	e8 30 e0 ff ff       	callq  400d40 <signal@plt>
  402d10:	ba 00 00 00 00       	mov    $0x0,%edx
  402d15:	be 01 00 00 00       	mov    $0x1,%esi
  402d1a:	bf 02 00 00 00       	mov    $0x2,%edi
  402d1f:	e8 4c e1 ff ff       	callq  400e70 <socket@plt>
  402d24:	85 c0                	test   %eax,%eax
  402d26:	0f 88 9c 00 00 00    	js     402dc8 <init_driver+0xfe>
  402d2c:	89 c3                	mov    %eax,%ebx
  402d2e:	bf 1c 38 40 00       	mov    $0x40381c,%edi
  402d33:	e8 18 e0 ff ff       	callq  400d50 <gethostbyname@plt>
  402d38:	48 85 c0             	test   %rax,%rax
  402d3b:	0f 84 d3 00 00 00    	je     402e14 <init_driver+0x14a>
  402d41:	48 c7 44 24 02 00 00 	movq   $0x0,0x2(%rsp)
  402d48:	00 00 
  402d4a:	c7 44 24 0a 00 00 00 	movl   $0x0,0xa(%rsp)
  402d51:	00 
  402d52:	66 c7 44 24 0e 00 00 	movw   $0x0,0xe(%rsp)
  402d59:	66 c7 04 24 02 00    	movw   $0x2,(%rsp)
  402d5f:	48 63 50 14          	movslq 0x14(%rax),%rdx
  402d63:	48 8b 40 18          	mov    0x18(%rax),%rax
  402d67:	48 8b 30             	mov    (%rax),%rsi
  402d6a:	48 8d 7c 24 04       	lea    0x4(%rsp),%rdi
  402d6f:	b9 0c 00 00 00       	mov    $0xc,%ecx
  402d74:	e8 e7 df ff ff       	callq  400d60 <__memmove_chk@plt>
  402d79:	66 c7 44 24 02 3c 9a 	movw   $0x9a3c,0x2(%rsp)
  402d80:	ba 10 00 00 00       	mov    $0x10,%edx
  402d85:	48 89 e6             	mov    %rsp,%rsi
  402d88:	89 df                	mov    %ebx,%edi
  402d8a:	e8 b1 e0 ff ff       	callq  400e40 <connect@plt>
  402d8f:	85 c0                	test   %eax,%eax
  402d91:	0f 88 e5 00 00 00    	js     402e7c <init_driver+0x1b2>
  402d97:	89 df                	mov    %ebx,%edi
  402d99:	e8 82 df ff ff       	callq  400d20 <close@plt>
  402d9e:	66 c7 45 00 4f 4b    	movw   $0x4b4f,0x0(%rbp)
  402da4:	c6 45 02 00          	movb   $0x0,0x2(%rbp)
  402da8:	b8 00 00 00 00       	mov    $0x0,%eax
  402dad:	48 8b 4c 24 18       	mov    0x18(%rsp),%rcx
  402db2:	64 48 33 0c 25 28 00 	xor    %fs:0x28,%rcx
  402db9:	00 00 
  402dbb:	0f 85 0e 01 00 00    	jne    402ecf <init_driver+0x205>
  402dc1:	48 83 c4 28          	add    $0x28,%rsp
  402dc5:	5b                   	pop    %rbx
  402dc6:	5d                   	pop    %rbp
  402dc7:	c3                   	retq   
  402dc8:	48 b8 45 72 72 6f 72 	movabs $0x43203a726f727245,%rax
  402dcf:	3a 20 43 
  402dd2:	48 ba 6c 69 65 6e 74 	movabs $0x6e7520746e65696c,%rdx
  402dd9:	20 75 6e 
  402ddc:	48 89 45 00          	mov    %rax,0x0(%rbp)
  402de0:	48 89 55 08          	mov    %rdx,0x8(%rbp)
  402de4:	48 b8 61 62 6c 65 20 	movabs $0x206f7420656c6261,%rax
  402deb:	74 6f 20 
  402dee:	48 ba 63 72 65 61 74 	movabs $0x7320657461657263,%rdx
  402df5:	65 20 73 
  402df8:	48 89 45 10          	mov    %rax,0x10(%rbp)
  402dfc:	48 89 55 18          	mov    %rdx,0x18(%rbp)
  402e00:	c7 45 20 6f 63 6b 65 	movl   $0x656b636f,0x20(%rbp)
  402e07:	66 c7 45 24 74 00    	movw   $0x74,0x24(%rbp)
  402e0d:	b8 ff ff ff ff       	mov    $0xffffffff,%eax
  402e12:	eb 99                	jmp    402dad <init_driver+0xe3>
  402e14:	48 b8 45 72 72 6f 72 	movabs $0x44203a726f727245,%rax
  402e1b:	3a 20 44 
  402e1e:	48 ba 4e 53 20 69 73 	movabs $0x6e7520736920534e,%rdx
  402e25:	20 75 6e 
  402e28:	48 89 45 00          	mov    %rax,0x0(%rbp)
  402e2c:	48 89 55 08          	mov    %rdx,0x8(%rbp)
  402e30:	48 b8 61 62 6c 65 20 	movabs $0x206f7420656c6261,%rax
  402e37:	74 6f 20 
  402e3a:	48 ba 72 65 73 6f 6c 	movabs $0x2065766c6f736572,%rdx
  402e41:	76 65 20 
  402e44:	48 89 45 10          	mov    %rax,0x10(%rbp)
  402e48:	48 89 55 18          	mov    %rdx,0x18(%rbp)
  402e4c:	48 b8 73 65 72 76 65 	movabs $0x6120726576726573,%rax
  402e53:	72 20 61 
  402e56:	48 89 45 20          	mov    %rax,0x20(%rbp)
  402e5a:	c7 45 28 64 64 72 65 	movl   $0x65726464,0x28(%rbp)
  402e61:	66 c7 45 2c 73 73    	movw   $0x7373,0x2c(%rbp)
  402e67:	c6 45 2e 00          	movb   $0x0,0x2e(%rbp)
  402e6b:	89 df                	mov    %ebx,%edi
  402e6d:	e8 ae de ff ff       	callq  400d20 <close@plt>
  402e72:	b8 ff ff ff ff       	mov    $0xffffffff,%eax
  402e77:	e9 31 ff ff ff       	jmpq   402dad <init_driver+0xe3>
  402e7c:	48 b8 45 72 72 6f 72 	movabs $0x55203a726f727245,%rax
  402e83:	3a 20 55 
  402e86:	48 ba 6e 61 62 6c 65 	movabs $0x6f7420656c62616e,%rdx
  402e8d:	20 74 6f 
  402e90:	48 89 45 00          	mov    %rax,0x0(%rbp)
  402e94:	48 89 55 08          	mov    %rdx,0x8(%rbp)
  402e98:	48 b8 20 63 6f 6e 6e 	movabs $0x7463656e6e6f6320,%rax
  402e9f:	65 63 74 
  402ea2:	48 ba 20 74 6f 20 73 	movabs $0x76726573206f7420,%rdx
  402ea9:	65 72 76 
  402eac:	48 89 45 10          	mov    %rax,0x10(%rbp)
  402eb0:	48 89 55 18          	mov    %rdx,0x18(%rbp)
  402eb4:	66 c7 45 20 65 72    	movw   $0x7265,0x20(%rbp)
  402eba:	c6 45 22 00          	movb   $0x0,0x22(%rbp)
  402ebe:	89 df                	mov    %ebx,%edi
  402ec0:	e8 5b de ff ff       	callq  400d20 <close@plt>
  402ec5:	b8 ff ff ff ff       	mov    $0xffffffff,%eax
  402eca:	e9 de fe ff ff       	jmpq   402dad <init_driver+0xe3>
  402ecf:	e8 0c de ff ff       	callq  400ce0 <__stack_chk_fail@plt>

0000000000402ed4 <driver_post>:
  402ed4:	53                   	push   %rbx
  402ed5:	4c 89 cb             	mov    %r9,%rbx
  402ed8:	45 85 c0             	test   %r8d,%r8d
  402edb:	75 18                	jne    402ef5 <driver_post+0x21>
  402edd:	48 85 ff             	test   %rdi,%rdi
  402ee0:	74 05                	je     402ee7 <driver_post+0x13>
  402ee2:	80 3f 00             	cmpb   $0x0,(%rdi)
  402ee5:	75 35                	jne    402f1c <driver_post+0x48>
  402ee7:	66 c7 03 4f 4b       	movw   $0x4b4f,(%rbx)
  402eec:	c6 43 02 00          	movb   $0x0,0x2(%rbx)
  402ef0:	44 89 c0             	mov    %r8d,%eax
  402ef3:	5b                   	pop    %rbx
  402ef4:	c3                   	retq   
  402ef5:	48 89 ca             	mov    %rcx,%rdx
  402ef8:	be 34 38 40 00       	mov    $0x403834,%esi
  402efd:	bf 01 00 00 00       	mov    $0x1,%edi
  402f02:	b8 00 00 00 00       	mov    $0x0,%eax
  402f07:	e8 d4 de ff ff       	callq  400de0 <__printf_chk@plt>
  402f0c:	66 c7 03 4f 4b       	movw   $0x4b4f,(%rbx)
  402f11:	c6 43 02 00          	movb   $0x0,0x2(%rbx)
  402f15:	b8 00 00 00 00       	mov    $0x0,%eax
  402f1a:	eb d7                	jmp    402ef3 <driver_post+0x1f>
  402f1c:	48 83 ec 08          	sub    $0x8,%rsp
  402f20:	41 51                	push   %r9
  402f22:	49 89 c9             	mov    %rcx,%r9
  402f25:	49 89 d0             	mov    %rdx,%r8
  402f28:	48 89 f9             	mov    %rdi,%rcx
  402f2b:	48 89 f2             	mov    %rsi,%rdx
  402f2e:	be 9a 3c 00 00       	mov    $0x3c9a,%esi
  402f33:	bf 1c 38 40 00       	mov    $0x40381c,%edi
  402f38:	e8 f8 f5 ff ff       	callq  402535 <submitr>
  402f3d:	48 83 c4 10          	add    $0x10,%rsp
  402f41:	eb b0                	jmp    402ef3 <driver_post+0x1f>

0000000000402f43 <check>:
  402f43:	89 f8                	mov    %edi,%eax
  402f45:	c1 e8 1c             	shr    $0x1c,%eax
  402f48:	85 c0                	test   %eax,%eax
  402f4a:	74 1d                	je     402f69 <check+0x26>
  402f4c:	b9 00 00 00 00       	mov    $0x0,%ecx
  402f51:	83 f9 1f             	cmp    $0x1f,%ecx
  402f54:	7f 0d                	jg     402f63 <check+0x20>
  402f56:	89 f8                	mov    %edi,%eax
  402f58:	d3 e8                	shr    %cl,%eax
  402f5a:	3c 0a                	cmp    $0xa,%al
  402f5c:	74 11                	je     402f6f <check+0x2c>
  402f5e:	83 c1 08             	add    $0x8,%ecx
  402f61:	eb ee                	jmp    402f51 <check+0xe>
  402f63:	b8 01 00 00 00       	mov    $0x1,%eax
  402f68:	c3                   	retq   
  402f69:	b8 00 00 00 00       	mov    $0x0,%eax
  402f6e:	c3                   	retq   
  402f6f:	b8 00 00 00 00       	mov    $0x0,%eax
  402f74:	c3                   	retq   

0000000000402f75 <gencookie>:
  402f75:	53                   	push   %rbx
  402f76:	83 c7 01             	add    $0x1,%edi
  402f79:	e8 12 dd ff ff       	callq  400c90 <srandom@plt>
  402f7e:	e8 1d de ff ff       	callq  400da0 <random@plt>
  402f83:	89 c3                	mov    %eax,%ebx
  402f85:	89 c7                	mov    %eax,%edi
  402f87:	e8 b7 ff ff ff       	callq  402f43 <check>
  402f8c:	85 c0                	test   %eax,%eax
  402f8e:	74 ee                	je     402f7e <gencookie+0x9>
  402f90:	89 d8                	mov    %ebx,%eax
  402f92:	5b                   	pop    %rbx
  402f93:	c3                   	retq   
  402f94:	66 2e 0f 1f 84 00 00 	nopw   %cs:0x0(%rax,%rax,1)
  402f9b:	00 00 00 
  402f9e:	66 90                	xchg   %ax,%ax

0000000000402fa0 <__libc_csu_init>:
  402fa0:	41 57                	push   %r15
  402fa2:	41 56                	push   %r14
  402fa4:	49 89 d7             	mov    %rdx,%r15
  402fa7:	41 55                	push   %r13
  402fa9:	41 54                	push   %r12
  402fab:	4c 8d 25 5e 1e 20 00 	lea    0x201e5e(%rip),%r12        # 604e10 <__frame_dummy_init_array_entry>
  402fb2:	55                   	push   %rbp
  402fb3:	48 8d 2d 5e 1e 20 00 	lea    0x201e5e(%rip),%rbp        # 604e18 <__init_array_end>
  402fba:	53                   	push   %rbx
  402fbb:	41 89 fd             	mov    %edi,%r13d
  402fbe:	49 89 f6             	mov    %rsi,%r14
  402fc1:	4c 29 e5             	sub    %r12,%rbp
  402fc4:	48 83 ec 08          	sub    $0x8,%rsp
  402fc8:	48 c1 fd 03          	sar    $0x3,%rbp
  402fcc:	e8 77 dc ff ff       	callq  400c48 <_init>
  402fd1:	48 85 ed             	test   %rbp,%rbp
  402fd4:	74 20                	je     402ff6 <__libc_csu_init+0x56>
  402fd6:	31 db                	xor    %ebx,%ebx
  402fd8:	0f 1f 84 00 00 00 00 	nopl   0x0(%rax,%rax,1)
  402fdf:	00 
  402fe0:	4c 89 fa             	mov    %r15,%rdx
  402fe3:	4c 89 f6             	mov    %r14,%rsi
  402fe6:	44 89 ef             	mov    %r13d,%edi
  402fe9:	41 ff 14 dc          	callq  *(%r12,%rbx,8)
  402fed:	48 83 c3 01          	add    $0x1,%rbx
  402ff1:	48 39 dd             	cmp    %rbx,%rbp
  402ff4:	75 ea                	jne    402fe0 <__libc_csu_init+0x40>
  402ff6:	48 83 c4 08          	add    $0x8,%rsp
  402ffa:	5b                   	pop    %rbx
  402ffb:	5d                   	pop    %rbp
  402ffc:	41 5c                	pop    %r12
  402ffe:	41 5d                	pop    %r13
  403000:	41 5e                	pop    %r14
  403002:	41 5f                	pop    %r15
  403004:	c3                   	retq   
  403005:	90                   	nop
  403006:	66 2e 0f 1f 84 00 00 	nopw   %cs:0x0(%rax,%rax,1)
  40300d:	00 00 00 

0000000000403010 <__libc_csu_fini>:
  403010:	f3 c3                	repz retq 

Disassembly of section .fini:

0000000000403014 <_fini>:
  403014:	48 83 ec 08          	sub    $0x8,%rsp
  403018:	48 83 c4 08          	add    $0x8,%rsp
  40301c:	c3                   	retq   
